

Microchip Technology PIC LITE Macro Assembler V1.41 build -162212810 
                                                                                               Fri Mar 03 08:26:28 2017

Microchip Technology Omniscient Code Generator v1.41 (Free mode) build 201701250102
     1                           	processor	12F1822
     2                           	opt	pw 120
     3                           	opt	lm
     4                           	psect	idataBANK0,global,class=CODE,delta=2
     5                           	psect	stringtext,global,class=STRCODE,delta=2
     6                           	psect	nvBANK0,global,class=BANK0,space=1,delta=1
     7                           	psect	cinit,global,class=CODE,merge=1,delta=2
     8                           	psect	bssCOMMON,global,class=COMMON,space=1,delta=1
     9                           	psect	bssBANK0,global,class=BANK0,space=1,delta=1
    10                           	psect	dataBANK0,global,class=BANK0,space=1,delta=1
    11                           	psect	bssBANK1,global,class=BANK1,space=1,delta=1
    12                           	psect	clrtext,global,class=CODE,delta=2
    13                           	psect	cstackCOMMON,global,class=COMMON,space=1,delta=1
    14                           	psect	cstackBANK0,global,class=BANK0,space=1,delta=1
    15                           	psect	maintext,global,class=CODE,merge=1,split=1,delta=2
    16                           	psect	text1,local,class=CODE,merge=1,delta=2
    17                           	psect	text2,local,class=CODE,merge=1,delta=2
    18                           	psect	text3,local,class=CODE,merge=1,delta=2
    19                           	psect	text4,local,class=CODE,merge=1,delta=2
    20                           	psect	text5,local,class=CODE,merge=1,delta=2
    21                           	psect	text6,local,class=CODE,merge=1,delta=2
    22                           	psect	text7,local,class=CODE,merge=1,delta=2
    23                           	psect	text8,local,class=CODE,merge=1,delta=2
    24                           	psect	text9,local,class=CODE,merge=1,delta=2
    25                           	psect	text10,local,class=CODE,merge=1,delta=2
    26                           	psect	text11,local,class=CODE,merge=1,delta=2
    27                           	psect	text12,local,class=CODE,merge=1,delta=2
    28                           	psect	text13,local,class=CODE,merge=1,delta=2
    29                           	psect	text14,local,class=CODE,merge=1,delta=2
    30                           	psect	text15,local,class=CODE,merge=1,delta=2
    31                           	psect	text16,local,class=CODE,merge=1,delta=2
    32                           	psect	text17,local,class=CODE,merge=1,delta=2
    33                           	psect	text18,local,class=CODE,merge=1,delta=2
    34                           	psect	text19,local,class=CODE,merge=1,delta=2
    35                           	psect	text20,local,class=CODE,merge=1,delta=2
    36                           	psect	text21,local,class=CODE,merge=1,delta=2
    37                           	psect	text22,local,class=CODE,merge=1,delta=2
    38                           	psect	text23,local,class=CODE,merge=1,delta=2
    39                           	psect	text24,local,class=CODE,merge=1,delta=2
    40                           	psect	text25,local,class=CODE,merge=1,delta=2
    41                           	psect	text26,local,class=CODE,merge=1,delta=2
    42                           	psect	text27,local,class=CODE,merge=1,delta=2
    43                           	psect	text28,local,class=CODE,merge=1,delta=2
    44                           	psect	text29,local,class=CODE,merge=1,delta=2
    45                           	psect	text30,local,class=CODE,merge=1,delta=2
    46                           	psect	text31,local,class=CODE,merge=1,delta=2
    47                           	psect	text32,local,class=CODE,merge=1,delta=2
    48                           	psect	text33,local,class=CODE,merge=1,delta=2
    49                           	psect	text34,local,class=CODE,merge=1,delta=2
    50                           	psect	text35,local,class=CODE,merge=1,delta=2
    51                           	psect	text36,local,class=CODE,merge=1,delta=2
    52                           	psect	text37,local,class=CODE,merge=1,delta=2
    53                           	psect	text38,local,class=CODE,merge=1,delta=2
    54                           	psect	text39,local,class=CODE,merge=1,delta=2
    55                           	psect	text40,local,class=CODE,merge=1,delta=2
    56                           	psect	text41,local,class=CODE,merge=1,delta=2
    57                           	psect	text42,local,class=CODE,merge=1,delta=2
    58                           	psect	text43,local,class=CODE,merge=1,delta=2
    59                           	psect	text44,local,class=CODE,merge=1,delta=2
    60                           	psect	text45,local,class=CODE,merge=1,delta=2
    61                           	psect	text46,local,class=CODE,merge=1,delta=2
    62                           	psect	text47,local,class=CODE,merge=1,delta=2,group=2
    63                           	psect	text48,local,class=CODE,merge=1,delta=2
    64                           	psect	text49,local,class=CODE,merge=1,delta=2
    65                           	psect	text50,local,class=CODE,merge=1,delta=2
    66                           	psect	text51,local,class=CODE,merge=1,delta=2
    67                           	psect	intentry,global,class=CODE,delta=2
    68                           	psect	text53,local,class=CODE,merge=1,delta=2
    69                           	psect	text54,local,class=CODE,merge=1,delta=2
    70                           	psect	text55,local,class=CODE,merge=1,delta=2
    71                           	psect	text56,local,class=CODE,merge=1,delta=2
    72                           	dabs	1,0x7E,2
    73  0000                     
    74                           ; Version 1.41
    75                           ; Generated 25/01/2017 GMT
    76                           ; 
    77                           ; Copyright © 2017, Microchip Technology Inc. and its subsidiaries ("Microchip")
    78                           ; All rights reserved.
    79                           ; 
    80                           ; This software is developed by Microchip Technology Inc. and its subsidiaries ("Microch
      +                          ip").
    81                           ; 
    82                           ; Redistribution and use in source and binary forms, with or without modification, are
    83                           ; permitted provided that the following conditions are met:
    84                           ; 
    85                           ;     1. Redistributions of source code must retain the above copyright notice, this lis
      +                          t of
    86                           ;        conditions and the following disclaimer.
    87                           ; 
    88                           ;     2. Redistributions in binary form must reproduce the above copyright notice, this 
      +                          list
    89                           ;        of conditions and the following disclaimer in the documentation and/or other
    90                           ;        materials provided with the distribution.
    91                           ; 
    92                           ;     3. Microchip's name may not be used to endorse or promote products derived from th
      +                          is
    93                           ;        software without specific prior written permission.
    94                           ; 
    95                           ; THIS SOFTWARE IS PROVIDED BY MICROCHIP "AS IS" AND ANY EXPRESS OR IMPLIED WARRANTIES,
    96                           ; INCLUDING, BUT NOT LIMITED TO, THE IMPLIED WARRANTIES OF MERCHANTABILITY AND FITNESS F
      +                          OR
    97                           ; PURPOSE ARE DISCLAIMED.  IN NO EVENT SHALL MICROCHIP BE LIABLE FOR ANY DIRECT, INDIREC
      +                          T,
    98                           ; INCIDENTAL, SPECIAL, EXEMPLARY, OR CONSEQUENTIAL DAMAGES (INCLUDING BUT NOT LIMITED TO
    99                           ; PROCUREMENT OF SUBSTITUTE GOODS OR SERVICES; LOSS OF USE, DATA OR PROFITS; OR BUSINESS
   100                           ; INTERRUPTION) HOWSOEVER CAUSED AND ON ANY THEORY OF LIABILITY, WHETHER IN CONTRACT, ST
      +                          RICT
   101                           ; LIABILITY, OR TORT (INCLUDING NEGLIGENCE OR OTHERWISE) ARISING IN ANY WAY OUT OF THE U
      +                          SE OF
   102                           ; THIS SOFTWARE, EVEN IF ADVISED OF THE POSSIBILITY OF SUCH DAMAGE.
   103                           ; 
   104                           ; 
   105                           ; Code-generator required, PIC12F1822 Definitions
   106                           ; 
   107                           ; SFR Addresses
   108  0000                     	;# 
   109  0001                     	;# 
   110  0002                     	;# 
   111  0003                     	;# 
   112  0004                     	;# 
   113  0005                     	;# 
   114  0006                     	;# 
   115  0007                     	;# 
   116  0008                     	;# 
   117  0009                     	;# 
   118  000A                     	;# 
   119  000B                     	;# 
   120  000C                     	;# 
   121  0011                     	;# 
   122  0012                     	;# 
   123  0015                     	;# 
   124  0016                     	;# 
   125  0016                     	;# 
   126  0017                     	;# 
   127  0018                     	;# 
   128  0019                     	;# 
   129  001A                     	;# 
   130  001B                     	;# 
   131  001C                     	;# 
   132  001E                     	;# 
   133  001F                     	;# 
   134  008C                     	;# 
   135  0091                     	;# 
   136  0092                     	;# 
   137  0095                     	;# 
   138  0096                     	;# 
   139  0097                     	;# 
   140  0098                     	;# 
   141  0099                     	;# 
   142  009A                     	;# 
   143  009B                     	;# 
   144  009B                     	;# 
   145  009C                     	;# 
   146  009D                     	;# 
   147  009E                     	;# 
   148  010C                     	;# 
   149  0111                     	;# 
   150  0112                     	;# 
   151  0115                     	;# 
   152  0116                     	;# 
   153  0117                     	;# 
   154  0118                     	;# 
   155  0119                     	;# 
   156  011A                     	;# 
   157  011B                     	;# 
   158  011D                     	;# 
   159  011D                     	;# 
   160  018C                     	;# 
   161  0191                     	;# 
   162  0191                     	;# 
   163  0192                     	;# 
   164  0193                     	;# 
   165  0193                     	;# 
   166  0193                     	;# 
   167  0194                     	;# 
   168  0195                     	;# 
   169  0196                     	;# 
   170  0199                     	;# 
   171  019A                     	;# 
   172  019B                     	;# 
   173  019B                     	;# 
   174  019B                     	;# 
   175  019B                     	;# 
   176  019C                     	;# 
   177  019C                     	;# 
   178  019D                     	;# 
   179  019E                     	;# 
   180  019F                     	;# 
   181  020C                     	;# 
   182  0211                     	;# 
   183  0211                     	;# 
   184  0212                     	;# 
   185  0212                     	;# 
   186  0213                     	;# 
   187  0213                     	;# 
   188  0214                     	;# 
   189  0214                     	;# 
   190  0215                     	;# 
   191  0215                     	;# 
   192  0215                     	;# 
   193  0216                     	;# 
   194  0216                     	;# 
   195  0217                     	;# 
   196  0217                     	;# 
   197  0291                     	;# 
   198  0291                     	;# 
   199  0292                     	;# 
   200  0293                     	;# 
   201  0294                     	;# 
   202  0295                     	;# 
   203  0295                     	;# 
   204  0296                     	;# 
   205  0391                     	;# 
   206  0392                     	;# 
   207  0393                     	;# 
   208  039A                     	;# 
   209  039C                     	;# 
   210  039D                     	;# 
   211  039E                     	;# 
   212  039F                     	;# 
   213  0FE4                     	;# 
   214  0FE5                     	;# 
   215  0FE6                     	;# 
   216  0FE7                     	;# 
   217  0FE8                     	;# 
   218  0FE9                     	;# 
   219  0FEA                     	;# 
   220  0FEB                     	;# 
   221  0FED                     	;# 
   222  0FEE                     	;# 
   223  0FEF                     	;# 
   224  0000                     	;# 
   225  0001                     	;# 
   226  0002                     	;# 
   227  0003                     	;# 
   228  0004                     	;# 
   229  0005                     	;# 
   230  0006                     	;# 
   231  0007                     	;# 
   232  0008                     	;# 
   233  0009                     	;# 
   234  000A                     	;# 
   235  000B                     	;# 
   236  000C                     	;# 
   237  0011                     	;# 
   238  0012                     	;# 
   239  0015                     	;# 
   240  0016                     	;# 
   241  0016                     	;# 
   242  0017                     	;# 
   243  0018                     	;# 
   244  0019                     	;# 
   245  001A                     	;# 
   246  001B                     	;# 
   247  001C                     	;# 
   248  001E                     	;# 
   249  001F                     	;# 
   250  008C                     	;# 
   251  0091                     	;# 
   252  0092                     	;# 
   253  0095                     	;# 
   254  0096                     	;# 
   255  0097                     	;# 
   256  0098                     	;# 
   257  0099                     	;# 
   258  009A                     	;# 
   259  009B                     	;# 
   260  009B                     	;# 
   261  009C                     	;# 
   262  009D                     	;# 
   263  009E                     	;# 
   264  010C                     	;# 
   265  0111                     	;# 
   266  0112                     	;# 
   267  0115                     	;# 
   268  0116                     	;# 
   269  0117                     	;# 
   270  0118                     	;# 
   271  0119                     	;# 
   272  011A                     	;# 
   273  011B                     	;# 
   274  011D                     	;# 
   275  011D                     	;# 
   276  018C                     	;# 
   277  0191                     	;# 
   278  0191                     	;# 
   279  0192                     	;# 
   280  0193                     	;# 
   281  0193                     	;# 
   282  0193                     	;# 
   283  0194                     	;# 
   284  0195                     	;# 
   285  0196                     	;# 
   286  0199                     	;# 
   287  019A                     	;# 
   288  019B                     	;# 
   289  019B                     	;# 
   290  019B                     	;# 
   291  019B                     	;# 
   292  019C                     	;# 
   293  019C                     	;# 
   294  019D                     	;# 
   295  019E                     	;# 
   296  019F                     	;# 
   297  020C                     	;# 
   298  0211                     	;# 
   299  0211                     	;# 
   300  0212                     	;# 
   301  0212                     	;# 
   302  0213                     	;# 
   303  0213                     	;# 
   304  0214                     	;# 
   305  0214                     	;# 
   306  0215                     	;# 
   307  0215                     	;# 
   308  0215                     	;# 
   309  0216                     	;# 
   310  0216                     	;# 
   311  0217                     	;# 
   312  0217                     	;# 
   313  0291                     	;# 
   314  0291                     	;# 
   315  0292                     	;# 
   316  0293                     	;# 
   317  0294                     	;# 
   318  0295                     	;# 
   319  0295                     	;# 
   320  0296                     	;# 
   321  0391                     	;# 
   322  0392                     	;# 
   323  0393                     	;# 
   324  039A                     	;# 
   325  039C                     	;# 
   326  039D                     	;# 
   327  039E                     	;# 
   328  039F                     	;# 
   329  0FE4                     	;# 
   330  0FE5                     	;# 
   331  0FE6                     	;# 
   332  0FE7                     	;# 
   333  0FE8                     	;# 
   334  0FE9                     	;# 
   335  0FEA                     	;# 
   336  0FEB                     	;# 
   337  0FED                     	;# 
   338  0FEE                     	;# 
   339  0FEF                     	;# 
   340  0000                     	;# 
   341  0001                     	;# 
   342  0002                     	;# 
   343  0003                     	;# 
   344  0004                     	;# 
   345  0005                     	;# 
   346  0006                     	;# 
   347  0007                     	;# 
   348  0008                     	;# 
   349  0009                     	;# 
   350  000A                     	;# 
   351  000B                     	;# 
   352  000C                     	;# 
   353  0011                     	;# 
   354  0012                     	;# 
   355  0015                     	;# 
   356  0016                     	;# 
   357  0016                     	;# 
   358  0017                     	;# 
   359  0018                     	;# 
   360  0019                     	;# 
   361  001A                     	;# 
   362  001B                     	;# 
   363  001C                     	;# 
   364  001E                     	;# 
   365  001F                     	;# 
   366  008C                     	;# 
   367  0091                     	;# 
   368  0092                     	;# 
   369  0095                     	;# 
   370  0096                     	;# 
   371  0097                     	;# 
   372  0098                     	;# 
   373  0099                     	;# 
   374  009A                     	;# 
   375  009B                     	;# 
   376  009B                     	;# 
   377  009C                     	;# 
   378  009D                     	;# 
   379  009E                     	;# 
   380  010C                     	;# 
   381  0111                     	;# 
   382  0112                     	;# 
   383  0115                     	;# 
   384  0116                     	;# 
   385  0117                     	;# 
   386  0118                     	;# 
   387  0119                     	;# 
   388  011A                     	;# 
   389  011B                     	;# 
   390  011D                     	;# 
   391  011D                     	;# 
   392  018C                     	;# 
   393  0191                     	;# 
   394  0191                     	;# 
   395  0192                     	;# 
   396  0193                     	;# 
   397  0193                     	;# 
   398  0193                     	;# 
   399  0194                     	;# 
   400  0195                     	;# 
   401  0196                     	;# 
   402  0199                     	;# 
   403  019A                     	;# 
   404  019B                     	;# 
   405  019B                     	;# 
   406  019B                     	;# 
   407  019B                     	;# 
   408  019C                     	;# 
   409  019C                     	;# 
   410  019D                     	;# 
   411  019E                     	;# 
   412  019F                     	;# 
   413  020C                     	;# 
   414  0211                     	;# 
   415  0211                     	;# 
   416  0212                     	;# 
   417  0212                     	;# 
   418  0213                     	;# 
   419  0213                     	;# 
   420  0214                     	;# 
   421  0214                     	;# 
   422  0215                     	;# 
   423  0215                     	;# 
   424  0215                     	;# 
   425  0216                     	;# 
   426  0216                     	;# 
   427  0217                     	;# 
   428  0217                     	;# 
   429  0291                     	;# 
   430  0291                     	;# 
   431  0292                     	;# 
   432  0293                     	;# 
   433  0294                     	;# 
   434  0295                     	;# 
   435  0295                     	;# 
   436  0296                     	;# 
   437  0391                     	;# 
   438  0392                     	;# 
   439  0393                     	;# 
   440  039A                     	;# 
   441  039C                     	;# 
   442  039D                     	;# 
   443  039E                     	;# 
   444  039F                     	;# 
   445  0FE4                     	;# 
   446  0FE5                     	;# 
   447  0FE6                     	;# 
   448  0FE7                     	;# 
   449  0FE8                     	;# 
   450  0FE9                     	;# 
   451  0FEA                     	;# 
   452  0FEB                     	;# 
   453  0FED                     	;# 
   454  0FEE                     	;# 
   455  0FEF                     	;# 
   456  0000                     	;# 
   457  0001                     	;# 
   458  0002                     	;# 
   459  0003                     	;# 
   460  0004                     	;# 
   461  0005                     	;# 
   462  0006                     	;# 
   463  0007                     	;# 
   464  0008                     	;# 
   465  0009                     	;# 
   466  000A                     	;# 
   467  000B                     	;# 
   468  000C                     	;# 
   469  0011                     	;# 
   470  0012                     	;# 
   471  0015                     	;# 
   472  0016                     	;# 
   473  0016                     	;# 
   474  0017                     	;# 
   475  0018                     	;# 
   476  0019                     	;# 
   477  001A                     	;# 
   478  001B                     	;# 
   479  001C                     	;# 
   480  001E                     	;# 
   481  001F                     	;# 
   482  008C                     	;# 
   483  0091                     	;# 
   484  0092                     	;# 
   485  0095                     	;# 
   486  0096                     	;# 
   487  0097                     	;# 
   488  0098                     	;# 
   489  0099                     	;# 
   490  009A                     	;# 
   491  009B                     	;# 
   492  009B                     	;# 
   493  009C                     	;# 
   494  009D                     	;# 
   495  009E                     	;# 
   496  010C                     	;# 
   497  0111                     	;# 
   498  0112                     	;# 
   499  0115                     	;# 
   500  0116                     	;# 
   501  0117                     	;# 
   502  0118                     	;# 
   503  0119                     	;# 
   504  011A                     	;# 
   505  011B                     	;# 
   506  011D                     	;# 
   507  011D                     	;# 
   508  018C                     	;# 
   509  0191                     	;# 
   510  0191                     	;# 
   511  0192                     	;# 
   512  0193                     	;# 
   513  0193                     	;# 
   514  0193                     	;# 
   515  0194                     	;# 
   516  0195                     	;# 
   517  0196                     	;# 
   518  0199                     	;# 
   519  019A                     	;# 
   520  019B                     	;# 
   521  019B                     	;# 
   522  019B                     	;# 
   523  019B                     	;# 
   524  019C                     	;# 
   525  019C                     	;# 
   526  019D                     	;# 
   527  019E                     	;# 
   528  019F                     	;# 
   529  020C                     	;# 
   530  0211                     	;# 
   531  0211                     	;# 
   532  0212                     	;# 
   533  0212                     	;# 
   534  0213                     	;# 
   535  0213                     	;# 
   536  0214                     	;# 
   537  0214                     	;# 
   538  0215                     	;# 
   539  0215                     	;# 
   540  0215                     	;# 
   541  0216                     	;# 
   542  0216                     	;# 
   543  0217                     	;# 
   544  0217                     	;# 
   545  0291                     	;# 
   546  0291                     	;# 
   547  0292                     	;# 
   548  0293                     	;# 
   549  0294                     	;# 
   550  0295                     	;# 
   551  0295                     	;# 
   552  0296                     	;# 
   553  0391                     	;# 
   554  0392                     	;# 
   555  0393                     	;# 
   556  039A                     	;# 
   557  039C                     	;# 
   558  039D                     	;# 
   559  039E                     	;# 
   560  039F                     	;# 
   561  0FE4                     	;# 
   562  0FE5                     	;# 
   563  0FE6                     	;# 
   564  0FE7                     	;# 
   565  0FE8                     	;# 
   566  0FE9                     	;# 
   567  0FEA                     	;# 
   568  0FEB                     	;# 
   569  0FED                     	;# 
   570  0FEE                     	;# 
   571  0FEF                     	;# 
   572  0000                     	;# 
   573  0001                     	;# 
   574  0002                     	;# 
   575  0003                     	;# 
   576  0004                     	;# 
   577  0005                     	;# 
   578  0006                     	;# 
   579  0007                     	;# 
   580  0008                     	;# 
   581  0009                     	;# 
   582  000A                     	;# 
   583  000B                     	;# 
   584  000C                     	;# 
   585  0011                     	;# 
   586  0012                     	;# 
   587  0015                     	;# 
   588  0016                     	;# 
   589  0016                     	;# 
   590  0017                     	;# 
   591  0018                     	;# 
   592  0019                     	;# 
   593  001A                     	;# 
   594  001B                     	;# 
   595  001C                     	;# 
   596  001E                     	;# 
   597  001F                     	;# 
   598  008C                     	;# 
   599  0091                     	;# 
   600  0092                     	;# 
   601  0095                     	;# 
   602  0096                     	;# 
   603  0097                     	;# 
   604  0098                     	;# 
   605  0099                     	;# 
   606  009A                     	;# 
   607  009B                     	;# 
   608  009B                     	;# 
   609  009C                     	;# 
   610  009D                     	;# 
   611  009E                     	;# 
   612  010C                     	;# 
   613  0111                     	;# 
   614  0112                     	;# 
   615  0115                     	;# 
   616  0116                     	;# 
   617  0117                     	;# 
   618  0118                     	;# 
   619  0119                     	;# 
   620  011A                     	;# 
   621  011B                     	;# 
   622  011D                     	;# 
   623  011D                     	;# 
   624  018C                     	;# 
   625  0191                     	;# 
   626  0191                     	;# 
   627  0192                     	;# 
   628  0193                     	;# 
   629  0193                     	;# 
   630  0193                     	;# 
   631  0194                     	;# 
   632  0195                     	;# 
   633  0196                     	;# 
   634  0199                     	;# 
   635  019A                     	;# 
   636  019B                     	;# 
   637  019B                     	;# 
   638  019B                     	;# 
   639  019B                     	;# 
   640  019C                     	;# 
   641  019C                     	;# 
   642  019D                     	;# 
   643  019E                     	;# 
   644  019F                     	;# 
   645  020C                     	;# 
   646  0211                     	;# 
   647  0211                     	;# 
   648  0212                     	;# 
   649  0212                     	;# 
   650  0213                     	;# 
   651  0213                     	;# 
   652  0214                     	;# 
   653  0214                     	;# 
   654  0215                     	;# 
   655  0215                     	;# 
   656  0215                     	;# 
   657  0216                     	;# 
   658  0216                     	;# 
   659  0217                     	;# 
   660  0217                     	;# 
   661  0291                     	;# 
   662  0291                     	;# 
   663  0292                     	;# 
   664  0293                     	;# 
   665  0294                     	;# 
   666  0295                     	;# 
   667  0295                     	;# 
   668  0296                     	;# 
   669  0391                     	;# 
   670  0392                     	;# 
   671  0393                     	;# 
   672  039A                     	;# 
   673  039C                     	;# 
   674  039D                     	;# 
   675  039E                     	;# 
   676  039F                     	;# 
   677  0FE4                     	;# 
   678  0FE5                     	;# 
   679  0FE6                     	;# 
   680  0FE7                     	;# 
   681  0FE8                     	;# 
   682  0FE9                     	;# 
   683  0FEA                     	;# 
   684  0FEB                     	;# 
   685  0FED                     	;# 
   686  0FEE                     	;# 
   687  0FEF                     	;# 
   688  0000                     	;# 
   689  0001                     	;# 
   690  0002                     	;# 
   691  0003                     	;# 
   692  0004                     	;# 
   693  0005                     	;# 
   694  0006                     	;# 
   695  0007                     	;# 
   696  0008                     	;# 
   697  0009                     	;# 
   698  000A                     	;# 
   699  000B                     	;# 
   700  000C                     	;# 
   701  0011                     	;# 
   702  0012                     	;# 
   703  0015                     	;# 
   704  0016                     	;# 
   705  0016                     	;# 
   706  0017                     	;# 
   707  0018                     	;# 
   708  0019                     	;# 
   709  001A                     	;# 
   710  001B                     	;# 
   711  001C                     	;# 
   712  001E                     	;# 
   713  001F                     	;# 
   714  008C                     	;# 
   715  0091                     	;# 
   716  0092                     	;# 
   717  0095                     	;# 
   718  0096                     	;# 
   719  0097                     	;# 
   720  0098                     	;# 
   721  0099                     	;# 
   722  009A                     	;# 
   723  009B                     	;# 
   724  009B                     	;# 
   725  009C                     	;# 
   726  009D                     	;# 
   727  009E                     	;# 
   728  010C                     	;# 
   729  0111                     	;# 
   730  0112                     	;# 
   731  0115                     	;# 
   732  0116                     	;# 
   733  0117                     	;# 
   734  0118                     	;# 
   735  0119                     	;# 
   736  011A                     	;# 
   737  011B                     	;# 
   738  011D                     	;# 
   739  011D                     	;# 
   740  018C                     	;# 
   741  0191                     	;# 
   742  0191                     	;# 
   743  0192                     	;# 
   744  0193                     	;# 
   745  0193                     	;# 
   746  0193                     	;# 
   747  0194                     	;# 
   748  0195                     	;# 
   749  0196                     	;# 
   750  0199                     	;# 
   751  019A                     	;# 
   752  019B                     	;# 
   753  019B                     	;# 
   754  019B                     	;# 
   755  019B                     	;# 
   756  019C                     	;# 
   757  019C                     	;# 
   758  019D                     	;# 
   759  019E                     	;# 
   760  019F                     	;# 
   761  020C                     	;# 
   762  0211                     	;# 
   763  0211                     	;# 
   764  0212                     	;# 
   765  0212                     	;# 
   766  0213                     	;# 
   767  0213                     	;# 
   768  0214                     	;# 
   769  0214                     	;# 
   770  0215                     	;# 
   771  0215                     	;# 
   772  0215                     	;# 
   773  0216                     	;# 
   774  0216                     	;# 
   775  0217                     	;# 
   776  0217                     	;# 
   777  0291                     	;# 
   778  0291                     	;# 
   779  0292                     	;# 
   780  0293                     	;# 
   781  0294                     	;# 
   782  0295                     	;# 
   783  0295                     	;# 
   784  0296                     	;# 
   785  0391                     	;# 
   786  0392                     	;# 
   787  0393                     	;# 
   788  039A                     	;# 
   789  039C                     	;# 
   790  039D                     	;# 
   791  039E                     	;# 
   792  039F                     	;# 
   793  0FE4                     	;# 
   794  0FE5                     	;# 
   795  0FE6                     	;# 
   796  0FE7                     	;# 
   797  0FE8                     	;# 
   798  0FE9                     	;# 
   799  0FEA                     	;# 
   800  0FEB                     	;# 
   801  0FED                     	;# 
   802  0FEE                     	;# 
   803  0FEF                     	;# 
   804                           
   805                           	psect	idataBANK0
   806  05B3                     __pidataBANK0:	
   807                           
   808                           ;initializer for _beepRate
   809  05B3  34E8               	retlw	232
   810  05B4  3403               	retlw	3
   811                           
   812                           ;initializer for _flashRate
   813  05B5  34E8               	retlw	232
   814  05B6  3403               	retlw	3
   815                           
   816                           	psect	stringtext
   817  002F                     __pstringtext:	
   818  002F                     _initStateTable:	
   819  002F  34D0               	retlw	low _init_NoAction
   820  0030  3405               	retlw	high _init_NoAction
   821  0031  346D               	retlw	low _initS1_Timeout
   822  0032  3405               	retlw	high _initS1_Timeout
   823  0033  34D0               	retlw	low _init_NoAction
   824  0034  3405               	retlw	high _init_NoAction
   825  0035  34D0               	retlw	low _init_NoAction
   826  0036  3405               	retlw	high _init_NoAction
   827  0037  34D0               	retlw	low _init_NoAction
   828  0038  3405               	retlw	high _init_NoAction
   829  0039  34D0               	retlw	low _init_NoAction
   830  003A  3405               	retlw	high _init_NoAction
   831  003B  34D0               	retlw	low _init_NoAction
   832  003C  3405               	retlw	high _init_NoAction
   833  003D  34D0               	retlw	low _init_NoAction
   834  003E  3405               	retlw	high _init_NoAction
   835  003F  34D0               	retlw	low _init_NoAction
   836  0040  3405               	retlw	high _init_NoAction
   837  0041  348F               	retlw	low _initS2_Timeout
   838  0042  3404               	retlw	high _initS2_Timeout
   839  0043  34D0               	retlw	low _init_NoAction
   840  0044  3405               	retlw	high _init_NoAction
   841  0045  34D0               	retlw	low _init_NoAction
   842  0046  3405               	retlw	high _init_NoAction
   843  0047  34D0               	retlw	low _init_NoAction
   844  0048  3405               	retlw	high _init_NoAction
   845  0049  34D0               	retlw	low _init_NoAction
   846  004A  3405               	retlw	high _init_NoAction
   847  004B  34D0               	retlw	low _init_NoAction
   848  004C  3405               	retlw	high _init_NoAction
   849  004D  34D0               	retlw	low _init_NoAction
   850  004E  3405               	retlw	high _init_NoAction
   851  004F  34D0               	retlw	low _init_NoAction
   852  0050  3405               	retlw	high _init_NoAction
   853  0051  34B5               	retlw	low _init_Restart
   854  0052  3404               	retlw	high _init_Restart
   855  0053  3460               	retlw	low _initS3_greenHigh
   856  0054  3405               	retlw	high _initS3_greenHigh
   857  0055  34D0               	retlw	low _init_NoAction
   858  0056  3405               	retlw	high _init_NoAction
   859  0057  34D0               	retlw	low _init_NoAction
   860  0058  3405               	retlw	high _init_NoAction
   861  0059  34D0               	retlw	low _init_NoAction
   862  005A  3405               	retlw	high _init_NoAction
   863  005B  34D0               	retlw	low _init_NoAction
   864  005C  3405               	retlw	high _init_NoAction
   865  005D  34D0               	retlw	low _init_NoAction
   866  005E  3405               	retlw	high _init_NoAction
   867  005F  34D0               	retlw	low _init_NoAction
   868  0060  3405               	retlw	high _init_NoAction
   869  0061  34B5               	retlw	low _init_Restart
   870  0062  3404               	retlw	high _init_Restart
   871  0063  34D0               	retlw	low _init_NoAction
   872  0064  3405               	retlw	high _init_NoAction
   873  0065  3453               	retlw	low _initS4_greenLow
   874  0066  3405               	retlw	high _initS4_greenLow
   875  0067  34D0               	retlw	low _init_NoAction
   876  0068  3405               	retlw	high _init_NoAction
   877  0069  34D0               	retlw	low _init_NoAction
   878  006A  3405               	retlw	high _init_NoAction
   879  006B  34D0               	retlw	low _init_NoAction
   880  006C  3405               	retlw	high _init_NoAction
   881  006D  34D0               	retlw	low _init_NoAction
   882  006E  3405               	retlw	high _init_NoAction
   883  006F  34D0               	retlw	low _init_NoAction
   884  0070  3405               	retlw	high _init_NoAction
   885  0071  34B5               	retlw	low _init_Restart
   886  0072  3404               	retlw	high _init_Restart
   887  0073  34D0               	retlw	low _init_NoAction
   888  0074  3405               	retlw	high _init_NoAction
   889  0075  34D0               	retlw	low _init_NoAction
   890  0076  3405               	retlw	high _init_NoAction
   891  0077  3446               	retlw	low _initS5_redHigh
   892  0078  3405               	retlw	high _initS5_redHigh
   893  0079  34D0               	retlw	low _init_NoAction
   894  007A  3405               	retlw	high _init_NoAction
   895  007B  34D0               	retlw	low _init_NoAction
   896  007C  3405               	retlw	high _init_NoAction
   897  007D  34D0               	retlw	low _init_NoAction
   898  007E  3405               	retlw	high _init_NoAction
   899  007F  34D0               	retlw	low _init_NoAction
   900  0080  3405               	retlw	high _init_NoAction
   901  0081  34B5               	retlw	low _init_Restart
   902  0082  3404               	retlw	high _init_Restart
   903  0083  34D0               	retlw	low _init_NoAction
   904  0084  3405               	retlw	high _init_NoAction
   905  0085  34D0               	retlw	low _init_NoAction
   906  0086  3405               	retlw	high _init_NoAction
   907  0087  34D0               	retlw	low _init_NoAction
   908  0088  3405               	retlw	high _init_NoAction
   909  0089  3439               	retlw	low _initS6_redLow
   910  008A  3405               	retlw	high _initS6_redLow
   911  008B  34D0               	retlw	low _init_NoAction
   912  008C  3405               	retlw	high _init_NoAction
   913  008D  34D0               	retlw	low _init_NoAction
   914  008E  3405               	retlw	high _init_NoAction
   915  008F  34D0               	retlw	low _init_NoAction
   916  0090  3405               	retlw	high _init_NoAction
   917  0091  34B5               	retlw	low _init_Restart
   918  0092  3404               	retlw	high _init_Restart
   919  0093  34D0               	retlw	low _init_NoAction
   920  0094  3405               	retlw	high _init_NoAction
   921  0095  34D0               	retlw	low _init_NoAction
   922  0096  3405               	retlw	high _init_NoAction
   923  0097  34D0               	retlw	low _init_NoAction
   924  0098  3405               	retlw	high _init_NoAction
   925  0099  34D0               	retlw	low _init_NoAction
   926  009A  3405               	retlw	high _init_NoAction
   927  009B  342C               	retlw	low _initS7_bothHigh
   928  009C  3405               	retlw	high _initS7_bothHigh
   929  009D  34D0               	retlw	low _init_NoAction
   930  009E  3405               	retlw	high _init_NoAction
   931  009F  34D0               	retlw	low _init_NoAction
   932  00A0  3405               	retlw	high _init_NoAction
   933  00A1  34B5               	retlw	low _init_Restart
   934  00A2  3404               	retlw	high _init_Restart
   935  00A3  34D0               	retlw	low _init_NoAction
   936  00A4  3405               	retlw	high _init_NoAction
   937  00A5  34D0               	retlw	low _init_NoAction
   938  00A6  3405               	retlw	high _init_NoAction
   939  00A7  34D0               	retlw	low _init_NoAction
   940  00A8  3405               	retlw	high _init_NoAction
   941  00A9  34D0               	retlw	low _init_NoAction
   942  00AA  3405               	retlw	high _init_NoAction
   943  00AB  34D0               	retlw	low _init_NoAction
   944  00AC  3405               	retlw	high _init_NoAction
   945  00AD  3432               	retlw	low _initS8_bothLow
   946  00AE  3404               	retlw	high _initS8_bothLow
   947  00AF  34D0               	retlw	low _init_NoAction
   948  00B0  3405               	retlw	high _init_NoAction
   949  00B1  34B5               	retlw	low _init_Restart
   950  00B2  3404               	retlw	high _init_Restart
   951  00B3  34D0               	retlw	low _init_NoAction
   952  00B4  3405               	retlw	high _init_NoAction
   953  00B5  34D0               	retlw	low _init_NoAction
   954  00B6  3405               	retlw	high _init_NoAction
   955  00B7  34D0               	retlw	low _init_NoAction
   956  00B8  3405               	retlw	high _init_NoAction
   957  00B9  34D0               	retlw	low _init_NoAction
   958  00BA  3405               	retlw	high _init_NoAction
   959  00BB  34D0               	retlw	low _init_NoAction
   960  00BC  3405               	retlw	high _init_NoAction
   961  00BD  34D0               	retlw	low _init_NoAction
   962  00BE  3405               	retlw	high _init_NoAction
   963  00BF                     __end_of_initStateTable:	
   964  00BF                     _runStateTable:	
   965  00BF  34CF               	retlw	low _run_NoAction
   966  00C0  3405               	retlw	high _run_NoAction
   967  00C1  34CE               	retlw	low _runS1_Timeout
   968  00C2  3405               	retlw	high _runS1_Timeout
   969  00C3  349C               	retlw	low _runS1_Initialised
   970  00C4  3405               	retlw	high _runS1_Initialised
   971  00C5  34CD               	retlw	low _runS1_Error
   972  00C6  3405               	retlw	high _runS1_Error
   973  00C7  34CD               	retlw	low _runS1_Error
   974  00C8  3405               	retlw	high _runS1_Error
   975  00C9  34CF               	retlw	low _run_NoAction
   976  00CA  3405               	retlw	high _run_NoAction
   977  00CB  34CD               	retlw	low _runS1_Error
   978  00CC  3405               	retlw	high _runS1_Error
   979  00CD  34CF               	retlw	low _run_NoAction
   980  00CE  3405               	retlw	high _run_NoAction
   981  00CF  34CC               	retlw	low _runS2_Timeout
   982  00D0  3405               	retlw	high _runS2_Timeout
   983  00D1  34CB               	retlw	low _runS2_Error
   984  00D2  3405               	retlw	high _runS2_Error
   985  00D3  34CA               	retlw	low _runS2_BeepReceived
   986  00D4  3405               	retlw	high _runS2_BeepReceived
   987  00D5  34CB               	retlw	low _runS2_Error
   988  00D6  3405               	retlw	high _runS2_Error
   989  00D7  34CF               	retlw	low _run_NoAction
   990  00D8  3405               	retlw	high _run_NoAction
   991  00D9  34CB               	retlw	low _runS2_Error
   992  00DA  3405               	retlw	high _runS2_Error
   993  00DB  34CF               	retlw	low _run_NoAction
   994  00DC  3405               	retlw	high _run_NoAction
   995  00DD  34C9               	retlw	low _runS3_Timeout
   996  00DE  3405               	retlw	high _runS3_Timeout
   997  00DF  34C8               	retlw	low _runS3_Error
   998  00E0  3405               	retlw	high _runS3_Error
   999  00E1  34C8               	retlw	low _runS3_Error
  1000  00E2  3405               	retlw	high _runS3_Error
  1001  00E3  34C7               	retlw	low _runS3_GreenFlashing
  1002  00E4  3405               	retlw	high _runS3_GreenFlashing
  1003  00E5  34CF               	retlw	low _run_NoAction
  1004  00E6  3405               	retlw	high _run_NoAction
  1005  00E7  34C8               	retlw	low _runS3_Error
  1006  00E8  3405               	retlw	high _runS3_Error
  1007  00E9  34CF               	retlw	low _run_NoAction
  1008  00EA  3405               	retlw	high _run_NoAction
  1009  00EB  34C6               	retlw	low _runS4_Timeout
  1010  00EC  3405               	retlw	high _runS4_Timeout
  1011  00ED  34C8               	retlw	low _runS3_Error
  1012  00EE  3405               	retlw	high _runS3_Error
  1013  00EF  34C8               	retlw	low _runS3_Error
  1014  00F0  3405               	retlw	high _runS3_Error
  1015  00F1  34CF               	retlw	low _run_NoAction
  1016  00F2  3405               	retlw	high _run_NoAction
  1017  00F3  34C5               	retlw	low _runS4_GreenSteadyLow
  1018  00F4  3405               	retlw	high _runS4_GreenSteadyLow
  1019  00F5  34C4               	retlw	low _runS4_Error
  1020  00F6  3405               	retlw	high _runS4_Error
  1021  00F7                     __end_of_runStateTable:	
  1022                           
  1023                           	psect	nvBANK0
  1024  005F                     __pnvBANK0:	
  1025  005F                     _eventHandlerTimer:	
  1026  005F                     	ds	1
  1027  0016                     _TMR1	set	22
  1028  001B                     _PR2	set	27
  1029  001C                     _T2CONbits	set	28
  1030  0011                     _PIR1bits	set	17
  1031  0018                     _T1CONbits	set	24
  1032  0019                     _T1GCONbits	set	25
  1033  000C                     _PORTAbits	set	12
  1034  000B                     _INTCONbits	set	11
  1035  0091                     _PIE1bits	set	145
  1036  0097                     _WDTCONbits	set	151
  1037  008C                     _TRISAbits	set	140
  1038  0099                     _OSCCONbits	set	153
  1039  010C                     _LATAbits	set	268
  1040  018C                     _ANSELAbits	set	396
  1041  0393                     _IOCAFbits	set	915
  1042  0391                     _IOCAPbits	set	913
  1043  0392                     _IOCANbits	set	914
  1044                           
  1045                           ; #config settings
  1046  0000                     
  1047                           	psect	cinit
  1048  0012                     start_initialization:	
  1049  0012                     __initialization:	
  1050                           
  1051                           ; Initialize objects allocated to BANK0
  1052  0012  25B3               	fcall	__pidataBANK0	;fetch initializer
  1053  0013  00DB               	movwf	__pdataBANK0& (0+127)
  1054  0014  25B4               	fcall	__pidataBANK0+1	;fetch initializer
  1055  0015  00DC               	movwf	(__pdataBANK0+1)& (0+127)
  1056  0016  25B5               	fcall	__pidataBANK0+2	;fetch initializer
  1057  0017  00DD               	movwf	(__pdataBANK0+2)& (0+127)
  1058  0018  25B6               	fcall	__pidataBANK0+3	;fetch initializer
  1059  0019  00DE               	movwf	(__pdataBANK0+3)& (0+127)
  1060                           
  1061                           ; Clear objects allocated to COMMON
  1062  001A  01F7               	clrf	__pbssCOMMON& (0+127)
  1063  001B  01F8               	clrf	(__pbssCOMMON+1)& (0+127)
  1064  001C  01F9               	clrf	(__pbssCOMMON+2)& (0+127)
  1065  001D  01FA               	clrf	(__pbssCOMMON+3)& (0+127)
  1066  001E  01FB               	clrf	(__pbssCOMMON+4)& (0+127)
  1067  001F  01FC               	clrf	(__pbssCOMMON+5)& (0+127)
  1068                           
  1069                           ; Clear objects allocated to BANK0
  1070  0020  3020               	movlw	low __pbssBANK0
  1071  0021  0084               	movwf	4
  1072  0022  3000               	movlw	high __pbssBANK0
  1073  0023  0085               	movwf	5
  1074  0024  3029               	movlw	41
  1075  0025  25A7               	fcall	clear_ram0
  1076                           
  1077                           ; Clear objects allocated to BANK1
  1078  0026  30A0               	movlw	low __pbssBANK1
  1079  0027  0084               	movwf	4
  1080  0028  3000               	movlw	high __pbssBANK1
  1081  0029  0085               	movwf	5
  1082  002A  3014               	movlw	20
  1083  002B  25A7               	fcall	clear_ram0
  1084  002C                     end_of_initialization:	
  1085                           ;End of C runtime variable initialization code
  1086                           
  1087  002C                     __end_of__initialization:	
  1088  002C  107E               	bcf	int$flags,0	;clear compiler interrupt flag (level 1)
  1089  002D  0020               	movlb	0
  1090  002E  2DAD               	ljmp	_main	;jump to C main() function
  1091                           
  1092                           	psect	bssCOMMON
  1093  0077                     __pbssCOMMON:	
  1094  0077                     _buzzerTimer:	
  1095  0077                     	ds	2
  1096  0079                     _systick:	
  1097  0079                     	ds	2
  1098  007B                     _numLongTimers:	
  1099  007B                     	ds	1
  1100  007C                     _numTimers:	
  1101  007C                     	ds	1
  1102                           
  1103                           	psect	bssBANK0
  1104  0020                     __pbssBANK0:	
  1105  0020                     _longTimers:	
  1106  0020                     	ds	4
  1107  0024                     _chargerInitialised:	
  1108  0024                     	ds	3
  1109  0027                     _redWentLow:	
  1110  0027                     	ds	3
  1111  002A                     _redWentHigh:	
  1112  002A                     	ds	3
  1113  002D                     _greenWentLow:	
  1114  002D                     	ds	3
  1115  0030                     _greenWentHigh:	
  1116  0030                     	ds	3
  1117  0033                     _nBeeps:	
  1118  0033                     	ds	2
  1119  0035                     _delayTimer:	
  1120  0035                     	ds	2
  1121  0037                     _minuteTimer:	
  1122  0037                     	ds	2
  1123  0039                     _runSMTimer:	
  1124  0039                     	ds	2
  1125  003B                     _initSMTimer:	
  1126  003B                     	ds	2
  1127  003D                     _beeperOn:	
  1128  003D                     	ds	1
  1129  003E                     _repeatedBeeping:	
  1130  003E                     	ds	1
  1131  003F                     _beeperToggle:	
  1132  003F                     	ds	1
  1133  0040                     _beeperTimer:	
  1134  0040                     	ds	1
  1135  0041                     _flashing:	
  1136  0041                     	ds	1
  1137  0042                     _flasherToggle:	
  1138  0042                     	ds	1
  1139  0043                     _LEDTimer:	
  1140  0043                     	ds	1
  1141  0044                     _ttog:	
  1142  0044                     	ds	1
  1143  0045                     _runEvent:	
  1144  0045                     	ds	1
  1145  0046                     _runState:	
  1146  0046                     	ds	1
  1147  0047                     _initEvent:	
  1148  0047                     	ds	1
  1149  0048                     _initState:	
  1150  0048                     	ds	1
  1151                           
  1152                           	psect	dataBANK0
  1153  005B                     __pdataBANK0:	
  1154  005B                     _beepRate:	
  1155  005B                     	ds	2
  1156  005D                     _flashRate:	
  1157  005D                     	ds	2
  1158                           
  1159                           	psect	bssBANK1
  1160  00A0                     __pbssBANK1:	
  1161  00A0                     _timers:	
  1162  00A0                     	ds	20
  1163                           
  1164                           	psect	clrtext
  1165  05A7                     clear_ram0:	
  1166                           ;	Called with FSR0 containing the base address, and
  1167                           ;	WREG with the size to clear
  1168                           
  1169  05A7  0064               	clrwdt	;clear the watchdog before getting into this loop
  1170  05A8                     clrloop0:	
  1171  05A8  0180               	clrf	0	;clear RAM location pointed to by FSR
  1172  05A9  3101               	addfsr 0,1
  1173  05AA  0B89               	decfsz	9,f	;Have we reached the end of clearing yet?
  1174  05AB  2DA8               	goto	clrloop0	;have we reached the end yet?
  1175  05AC  3400               	retlw	0	;all done for this memory range, return
  1176                           
  1177                           	psect	cstackCOMMON
  1178  0070                     __pcstackCOMMON:	
  1179  0070                     ?_init_NoAction:	
  1180  0070                     ?_initS1_Timeout:	
  1181                           ; 1 bytes @ 0x0
  1182                           
  1183  0070                     ?_initS2_Timeout:	
  1184                           ; 1 bytes @ 0x0
  1185                           
  1186  0070                     ?_init_Restart:	
  1187                           ; 1 bytes @ 0x0
  1188                           
  1189  0070                     ?_initS3_greenHigh:	
  1190                           ; 1 bytes @ 0x0
  1191                           
  1192  0070                     ?_initS4_greenLow:	
  1193                           ; 1 bytes @ 0x0
  1194                           
  1195  0070                     ?_initS5_redHigh:	
  1196                           ; 1 bytes @ 0x0
  1197                           
  1198  0070                     ?_initS6_redLow:	
  1199                           ; 1 bytes @ 0x0
  1200                           
  1201  0070                     ?_initS7_bothHigh:	
  1202                           ; 1 bytes @ 0x0
  1203                           
  1204  0070                     ?_initS8_bothLow:	
  1205                           ; 1 bytes @ 0x0
  1206                           
  1207  0070                     ?_run_NoAction:	
  1208                           ; 1 bytes @ 0x0
  1209                           
  1210  0070                     ?_runS1_Timeout:	
  1211                           ; 1 bytes @ 0x0
  1212                           
  1213  0070                     ?_runS1_Initialised:	
  1214                           ; 1 bytes @ 0x0
  1215                           
  1216  0070                     ?_runS1_Error:	
  1217                           ; 1 bytes @ 0x0
  1218                           
  1219  0070                     ?_runS2_Timeout:	
  1220                           ; 1 bytes @ 0x0
  1221                           
  1222  0070                     ?_runS2_Error:	
  1223                           ; 1 bytes @ 0x0
  1224                           
  1225  0070                     ?_runS2_BeepReceived:	
  1226                           ; 1 bytes @ 0x0
  1227                           
  1228  0070                     ?_runS3_Timeout:	
  1229                           ; 1 bytes @ 0x0
  1230                           
  1231  0070                     ?_runS3_Error:	
  1232                           ; 1 bytes @ 0x0
  1233                           
  1234  0070                     ?_runS3_GreenFlashing:	
  1235                           ; 1 bytes @ 0x0
  1236                           
  1237  0070                     ?_runS4_Timeout:	
  1238                           ; 1 bytes @ 0x0
  1239                           
  1240  0070                     ?_runS4_GreenSteadyLow:	
  1241                           ; 1 bytes @ 0x0
  1242                           
  1243  0070                     ?_runS4_Error:	
  1244                           ; 1 bytes @ 0x0
  1245                           
  1246  0070                     ?_timerGet:	
  1247                           ; 1 bytes @ 0x0
  1248                           
  1249  0070                     ?_longTimerGet:	
  1250                           ; 1 bytes @ 0x0
  1251                           
  1252  0070                     ?_getInitEvent:	
  1253                           ; 1 bytes @ 0x0
  1254                           
  1255  0070                     ?_getRunEvent:	
  1256                           ; 1 bytes @ 0x0
  1257                           
  1258  0070                     ?_timerLock:	
  1259                           ; 1 bytes @ 0x0
  1260                           
  1261  0070                     ?_clearLED:	
  1262                           ; 1 bytes @ 0x0
  1263                           
  1264  0070                     ?_setLED:	
  1265                           ; 1 bytes @ 0x0
  1266                           
  1267  0070                     ?_longTimerLock:	
  1268                           ; 1 bytes @ 0x0
  1269                           
  1270  0070                     ?_timerInterrupt:	
  1271                           ; 1 bytes @ 0x0
  1272                           
  1273  0070                     ??_timerInterrupt:	
  1274                           ; 1 bytes @ 0x0
  1275                           
  1276  0070                     ?_timer2Interrupt:	
  1277                           ; 1 bytes @ 0x0
  1278                           
  1279  0070                     ??_timer2Interrupt:	
  1280                           ; 1 bytes @ 0x0
  1281                           
  1282  0070                     ?_initialise:	
  1283                           ; 1 bytes @ 0x0
  1284                           
  1285  0070                     ?_beeperService:	
  1286                           ; 1 bytes @ 0x0
  1287                           
  1288  0070                     ?_hardwareInit:	
  1289                           ; 1 bytes @ 0x0
  1290                           
  1291  0070                     ?_timerInit:	
  1292                           ; 1 bytes @ 0x0
  1293                           
  1294  0070                     ?_beeperInit:	
  1295                           ; 1 bytes @ 0x0
  1296                           
  1297  0070                     ?_initIOCInterrupt:	
  1298                           ; 1 bytes @ 0x0
  1299                           
  1300  0070                     ?_IOCInterrupt:	
  1301                           ; 1 bytes @ 0x0
  1302                           
  1303  0070                     ?_eventHandlerInit:	
  1304                           ; 1 bytes @ 0x0
  1305                           
  1306  0070                     ?_eventHandlerService:	
  1307                           ; 1 bytes @ 0x0
  1308                           
  1309  0070                     ?_initInterrupt:	
  1310                           ; 1 bytes @ 0x0
  1311                           
  1312  0070                     ?_ISRCode:	
  1313                           ; 1 bytes @ 0x0
  1314                           
  1315  0070                     ?_LEDInit:	
  1316                           ; 1 bytes @ 0x0
  1317                           
  1318  0070                     ?_LEDService:	
  1319                           ; 1 bytes @ 0x0
  1320                           
  1321  0070                     ?_kickWatchDog:	
  1322                           ; 1 bytes @ 0x0
  1323                           
  1324  0070                     ?_main:	
  1325                           ; 1 bytes @ 0x0
  1326                           
  1327  0070                     ?_timer2Init:	
  1328                           ; 1 bytes @ 0x0
  1329                           
  1330  0070                     ?i1_timerSet:	
  1331                           ; 1 bytes @ 0x0
  1332                           
  1333  0070                     i1timerSet@duration:	
  1334                           ; 1 bytes @ 0x0
  1335                           
  1336                           
  1337                           ; 2 bytes @ 0x0
  1338  0070                     	ds	2
  1339  0072                     ??i1_timerSet:	
  1340  0072                     i1timerSet@index:	
  1341                           ; 1 bytes @ 0x2
  1342                           
  1343                           
  1344                           ; 1 bytes @ 0x2
  1345  0072                     	ds	1
  1346  0073                     ??_IOCInterrupt:	
  1347                           
  1348                           ; 1 bytes @ 0x3
  1349  0073                     	ds	2
  1350  0075                     timerInterrupt@i:	
  1351                           
  1352                           ; 1 bytes @ 0x5
  1353  0075                     	ds	1
  1354  0076                     ??_ISRCode:	
  1355                           
  1356                           ; 1 bytes @ 0x6
  1357  0076                     	ds	1
  1358                           
  1359                           	psect	cstackBANK0
  1360  0049                     __pcstackBANK0:	
  1361  0049                     ??_init_NoAction:	
  1362  0049                     ??_run_NoAction:	
  1363                           ; 1 bytes @ 0x0
  1364                           
  1365  0049                     ??_runS1_Timeout:	
  1366                           ; 1 bytes @ 0x0
  1367                           
  1368  0049                     ??_runS1_Error:	
  1369                           ; 1 bytes @ 0x0
  1370                           
  1371  0049                     ??_runS2_Timeout:	
  1372                           ; 1 bytes @ 0x0
  1373                           
  1374  0049                     ??_runS2_Error:	
  1375                           ; 1 bytes @ 0x0
  1376                           
  1377  0049                     ??_runS2_BeepReceived:	
  1378                           ; 1 bytes @ 0x0
  1379                           
  1380  0049                     ??_runS3_Timeout:	
  1381                           ; 1 bytes @ 0x0
  1382                           
  1383  0049                     ??_runS3_Error:	
  1384                           ; 1 bytes @ 0x0
  1385                           
  1386  0049                     ??_runS3_GreenFlashing:	
  1387                           ; 1 bytes @ 0x0
  1388                           
  1389  0049                     ??_runS4_Timeout:	
  1390                           ; 1 bytes @ 0x0
  1391                           
  1392  0049                     ??_runS4_GreenSteadyLow:	
  1393                           ; 1 bytes @ 0x0
  1394                           
  1395  0049                     ??_runS4_Error:	
  1396                           ; 1 bytes @ 0x0
  1397                           
  1398  0049                     ?_timerSet:	
  1399                           ; 1 bytes @ 0x0
  1400                           
  1401  0049                     ??_timerLock:	
  1402                           ; 1 bytes @ 0x0
  1403                           
  1404  0049                     ?_longTimerSet:	
  1405                           ; 1 bytes @ 0x0
  1406                           
  1407  0049                     ?_beepRepeatedly:	
  1408                           ; 1 bytes @ 0x0
  1409                           
  1410  0049                     ??_clearLED:	
  1411                           ; 1 bytes @ 0x0
  1412                           
  1413  0049                     ??_setLED:	
  1414                           ; 1 bytes @ 0x0
  1415                           
  1416  0049                     ??_longTimerLock:	
  1417                           ; 1 bytes @ 0x0
  1418                           
  1419  0049                     ??_hardwareInit:	
  1420                           ; 1 bytes @ 0x0
  1421                           
  1422  0049                     ??_timerInit:	
  1423                           ; 1 bytes @ 0x0
  1424                           
  1425  0049                     ??_initIOCInterrupt:	
  1426                           ; 1 bytes @ 0x0
  1427                           
  1428  0049                     ??_initInterrupt:	
  1429                           ; 1 bytes @ 0x0
  1430                           
  1431  0049                     ?_flashLED:	
  1432                           ; 1 bytes @ 0x0
  1433                           
  1434  0049                     ??_kickWatchDog:	
  1435                           ; 1 bytes @ 0x0
  1436                           
  1437  0049                     ??_timer2Init:	
  1438                           ; 1 bytes @ 0x0
  1439                           
  1440  0049                     ?_timerRead:	
  1441                           ; 1 bytes @ 0x0
  1442                           
  1443  0049                     ?___wmul:	
  1444                           ; 2 bytes @ 0x0
  1445                           
  1446  0049                     ?_longTimerRead:	
  1447                           ; 2 bytes @ 0x0
  1448                           
  1449  0049                     timerLock@index:	
  1450                           ; 4 bytes @ 0x0
  1451                           
  1452  0049                     flashLED@period:	
  1453                           ; 1 bytes @ 0x0
  1454                           
  1455  0049                     timerSet@duration:	
  1456                           ; 2 bytes @ 0x0
  1457                           
  1458  0049                     beepRepeatedly@period:	
  1459                           ; 2 bytes @ 0x0
  1460                           
  1461  0049                     ___wmul@multiplier:	
  1462                           ; 2 bytes @ 0x0
  1463                           
  1464  0049                     longTimerSet@duration:	
  1465                           ; 2 bytes @ 0x0
  1466                           
  1467                           
  1468                           ; 4 bytes @ 0x0
  1469  0049                     	ds	1
  1470  004A                     ??_initS2_Timeout:	
  1471  004A                     ??_initS8_bothLow:	
  1472                           ; 1 bytes @ 0x1
  1473                           
  1474  004A                     ??_timerGet:	
  1475                           ; 1 bytes @ 0x1
  1476                           
  1477  004A                     longTimerLock@index:	
  1478                           ; 1 bytes @ 0x1
  1479                           
  1480                           
  1481                           ; 1 bytes @ 0x1
  1482  004A                     	ds	1
  1483  004B                     ??_timerSet:	
  1484  004B                     ??_longTimerGet:	
  1485                           ; 1 bytes @ 0x2
  1486                           
  1487  004B                     ??_flashLED:	
  1488                           ; 1 bytes @ 0x2
  1489                           
  1490  004B                     timerGet@result:	
  1491                           ; 1 bytes @ 0x2
  1492                           
  1493  004B                     timerSet@index:	
  1494                           ; 1 bytes @ 0x2
  1495                           
  1496  004B                     beepRepeatedly@n:	
  1497                           ; 1 bytes @ 0x2
  1498                           
  1499  004B                     ___wmul@multiplicand:	
  1500                           ; 2 bytes @ 0x2
  1501                           
  1502                           
  1503                           ; 2 bytes @ 0x2
  1504  004B                     	ds	1
  1505  004C                     ??_initS1_Timeout:	
  1506  004C                     ??_init_Restart:	
  1507                           ; 1 bytes @ 0x3
  1508                           
  1509  004C                     ??_initS3_greenHigh:	
  1510                           ; 1 bytes @ 0x3
  1511                           
  1512  004C                     ??_initS4_greenLow:	
  1513                           ; 1 bytes @ 0x3
  1514                           
  1515  004C                     ??_initS5_redHigh:	
  1516                           ; 1 bytes @ 0x3
  1517                           
  1518  004C                     ??_initS6_redLow:	
  1519                           ; 1 bytes @ 0x3
  1520                           
  1521  004C                     ??_initS7_bothHigh:	
  1522                           ; 1 bytes @ 0x3
  1523                           
  1524  004C                     ??_timerRead:	
  1525                           ; 1 bytes @ 0x3
  1526                           
  1527  004C                     ??_beeperInit:	
  1528                           ; 1 bytes @ 0x3
  1529                           
  1530  004C                     ??_LEDInit:	
  1531                           ; 1 bytes @ 0x3
  1532                           
  1533  004C                     longTimerGet@result:	
  1534                           ; 1 bytes @ 0x3
  1535                           
  1536  004C                     timerRead@result:	
  1537                           ; 1 bytes @ 0x3
  1538                           
  1539                           
  1540                           ; 2 bytes @ 0x3
  1541  004C                     	ds	1
  1542  004D                     ??_runS1_Initialised:	
  1543  004D                     ??_longTimerSet:	
  1544                           ; 1 bytes @ 0x4
  1545                           
  1546  004D                     ??_beepRepeatedly:	
  1547                           ; 1 bytes @ 0x4
  1548                           
  1549  004D                     ??_longTimerRead:	
  1550                           ; 1 bytes @ 0x4
  1551                           
  1552  004D                     ??_eventHandlerInit:	
  1553                           ; 1 bytes @ 0x4
  1554                           
  1555  004D                     ??___wmul:	
  1556                           ; 1 bytes @ 0x4
  1557                           
  1558  004D                     ___wmul@product:	
  1559                           ; 1 bytes @ 0x4
  1560                           
  1561                           
  1562                           ; 2 bytes @ 0x4
  1563  004D                     	ds	1
  1564  004E                     timerRead@index:	
  1565  004E                     longTimerSet@index:	
  1566                           ; 1 bytes @ 0x5
  1567                           
  1568  004E                     longTimerRead@result:	
  1569                           ; 1 bytes @ 0x5
  1570                           
  1571                           
  1572                           ; 4 bytes @ 0x5
  1573  004E                     	ds	1
  1574  004F                     ??_getInitEvent:	
  1575  004F                     ??_initialise:	
  1576                           ; 1 bytes @ 0x6
  1577                           
  1578  004F                     ??_beeperService:	
  1579                           ; 1 bytes @ 0x6
  1580                           
  1581  004F                     ??_LEDService:	
  1582                           ; 1 bytes @ 0x6
  1583                           
  1584                           
  1585                           ; 1 bytes @ 0x6
  1586  004F                     	ds	3
  1587  0052                     longTimerRead@index:	
  1588                           
  1589                           ; 1 bytes @ 0x9
  1590  0052                     	ds	1
  1591  0053                     ??_getRunEvent:	
  1592  0053                     ??_eventHandlerService:	
  1593                           ; 1 bytes @ 0xA
  1594                           
  1595                           
  1596                           ; 1 bytes @ 0xA
  1597  0053                     	ds	8
  1598  005B                     ??_main:	
  1599                           
  1600                           	psect	maintext
  1601  05AD                     __pmaintext:	
  1602                           ; 1 bytes @ 0x12
  1603 ;;
  1604 ;;Main: autosize = 0, tempsize = 0, incstack = 0, save=0
  1605 ;;
  1606 ;; *************** function _main *****************
  1607 ;; Defined at:
  1608 ;;		line 29 in file "../source/main.c"
  1609 ;; Parameters:    Size  Location     Type
  1610 ;;		None
  1611 ;; Auto vars:     Size  Location     Type
  1612 ;;		None
  1613 ;; Return value:  Size  Location     Type
  1614 ;;                  1    wreg      void 
  1615 ;; Registers used:
  1616 ;;		wreg, fsr0l, fsr0h, fsr1l, fsr1h, status,2, status,0, pclath, cstack
  1617 ;; Tracked objects:
  1618 ;;		On entry : B1F/0
  1619 ;;		On exit  : 0/0
  1620 ;;		Unchanged: 0/0
  1621 ;; Data sizes:     COMMON   BANK0   BANK1
  1622 ;;      Params:         0       0       0
  1623 ;;      Locals:         0       0       0
  1624 ;;      Temps:          0       0       0
  1625 ;;      Totals:         0       0       0
  1626 ;;Total ram usage:        0 bytes
  1627 ;; Hardware stack levels required when called:    7
  1628 ;; This function calls:
  1629 ;;		_LEDService
  1630 ;;		_beeperService
  1631 ;;		_eventHandlerService
  1632 ;;		_initialise
  1633 ;;		_kickWatchDog
  1634 ;; This function is called by:
  1635 ;;		Startup code after reset
  1636 ;; This function uses a non-reentrant model
  1637 ;;
  1638                           
  1639                           
  1640                           ;psect for function _main
  1641  05AD                     _main:	
  1642                           
  1643                           ;main.c: 31: initialise();
  1644                           
  1645                           ;incstack = 0
  1646                           ; Regs used in _main: [wreg-fsr1h+status,2+status,0+pclath+cstack]
  1647  05AD  244A               	fcall	_initialise
  1648  05AE                     l2574:	
  1649                           ;main.c: 32: while( 1 )
  1650                           
  1651                           
  1652                           ;main.c: 33: {
  1653                           ;main.c: 34: eventHandlerService();
  1654  05AE  2220               	fcall	_eventHandlerService
  1655                           
  1656                           ;main.c: 35: LEDService();
  1657  05AF  23C9               	fcall	_LEDService
  1658                           
  1659                           ;main.c: 36: beeperService();
  1660  05B0  2338               	fcall	_beeperService
  1661                           
  1662                           ;main.c: 37: kickWatchDog();
  1663  05B1  25C2               	fcall	_kickWatchDog
  1664  05B2  2DAE               	goto	l2574
  1665  05B3                     __end_of_main:	
  1666                           
  1667                           	psect	text1
  1668  05C2                     __ptext1:	
  1669 ;; *************** function _kickWatchDog *****************
  1670 ;; Defined at:
  1671 ;;		line 18 in file "../source/main.c"
  1672 ;; Parameters:    Size  Location     Type
  1673 ;;		None
  1674 ;; Auto vars:     Size  Location     Type
  1675 ;;		None
  1676 ;; Return value:  Size  Location     Type
  1677 ;;                  1    wreg      void 
  1678 ;; Registers used:
  1679 ;;		None
  1680 ;; Tracked objects:
  1681 ;;		On entry : 0/0
  1682 ;;		On exit  : 0/0
  1683 ;;		Unchanged: 0/0
  1684 ;; Data sizes:     COMMON   BANK0   BANK1
  1685 ;;      Params:         0       0       0
  1686 ;;      Locals:         0       0       0
  1687 ;;      Temps:          0       0       0
  1688 ;;      Totals:         0       0       0
  1689 ;;Total ram usage:        0 bytes
  1690 ;; Hardware stack levels used:    1
  1691 ;; Hardware stack levels required when called:    3
  1692 ;; This function calls:
  1693 ;;		Nothing
  1694 ;; This function is called by:
  1695 ;;		_main
  1696 ;; This function uses a non-reentrant model
  1697 ;;
  1698                           
  1699                           
  1700                           ;psect for function _kickWatchDog
  1701  05C2                     _kickWatchDog:	
  1702                           
  1703                           ;incstack = 0
  1704                           ; Regs used in _kickWatchDog: []
  1705  05C2  0064               	clrwdt	;# 
  1706  05C3  0008               	return
  1707  05C4                     __end_of_kickWatchDog:	
  1708                           
  1709                           	psect	text2
  1710  044A                     __ptext2:	
  1711 ;; *************** function _initialise *****************
  1712 ;; Defined at:
  1713 ;;		line 47 in file "../source/main.c"
  1714 ;; Parameters:    Size  Location     Type
  1715 ;;		None
  1716 ;; Auto vars:     Size  Location     Type
  1717 ;;		None
  1718 ;; Return value:  Size  Location     Type
  1719 ;;                  1    wreg      void 
  1720 ;; Registers used:
  1721 ;;		wreg, fsr1l, fsr1h, status,2, status,0, pclath, cstack
  1722 ;; Tracked objects:
  1723 ;;		On entry : 0/0
  1724 ;;		On exit  : 0/0
  1725 ;;		Unchanged: 0/0
  1726 ;; Data sizes:     COMMON   BANK0   BANK1
  1727 ;;      Params:         0       0       0
  1728 ;;      Locals:         0       0       0
  1729 ;;      Temps:          0       0       0
  1730 ;;      Totals:         0       0       0
  1731 ;;Total ram usage:        0 bytes
  1732 ;; Hardware stack levels used:    1
  1733 ;; Hardware stack levels required when called:    6
  1734 ;; This function calls:
  1735 ;;		_LEDInit
  1736 ;;		_beepRepeatedly
  1737 ;;		_beeperInit
  1738 ;;		_eventHandlerInit
  1739 ;;		_flashLED
  1740 ;;		_hardwareInit
  1741 ;;		_initInterrupt
  1742 ;;		_timerInit
  1743 ;; This function is called by:
  1744 ;;		_main
  1745 ;; This function uses a non-reentrant model
  1746 ;;
  1747                           
  1748                           
  1749                           ;psect for function _initialise
  1750  044A                     _initialise:	
  1751                           
  1752                           ;main.c: 49: hardwareInit();
  1753                           
  1754                           ;incstack = 0
  1755                           ; Regs used in _initialise: [wreg+fsr1l+fsr1h+status,2+status,0+pclath+cstack]
  1756  044A  238D               	fcall	_hardwareInit
  1757                           
  1758                           ;main.c: 50: timerInit();
  1759  044B  24A3               	fcall	_timerInit
  1760                           
  1761                           ;main.c: 51: eventHandlerInit();
  1762  044C  230A               	fcall	_eventHandlerInit
  1763                           
  1764                           ;main.c: 52: LEDInit();
  1765  044D  257A               	fcall	_LEDInit
  1766                           
  1767                           ;main.c: 53: beeperInit();
  1768  044E  24C6               	fcall	_beeperInit
  1769                           
  1770                           ;main.c: 54: initInterrupt();
  1771  044F  25BF               	fcall	_initInterrupt
  1772                           
  1773                           ;main.c: 55: flashLED(1000);
  1774  0450  30E8               	movlw	232
  1775  0451  0020               	movlb	0	; select bank0
  1776  0452  00C9               	movwf	flashLED@period
  1777  0453  3003               	movlw	3
  1778  0454  00CA               	movwf	flashLED@period+1
  1779  0455  2586               	fcall	_flashLED
  1780                           
  1781                           ;main.c: 56: beepRepeatedly(200, 3);
  1782  0456  30C8               	movlw	200
  1783  0457  0020               	movlb	0	; select bank0
  1784  0458  00C9               	movwf	beepRepeatedly@period
  1785  0459  3000               	movlw	0
  1786  045A  00CA               	movwf	beepRepeatedly@period+1
  1787  045B  3003               	movlw	3
  1788  045C  00CB               	movwf	beepRepeatedly@n
  1789  045D  3000               	movlw	0
  1790  045E  00CC               	movwf	beepRepeatedly@n+1
  1791  045F  2461               	fcall	_beepRepeatedly
  1792  0460  0008               	return
  1793  0461                     __end_of_initialise:	
  1794                           
  1795                           	psect	text3
  1796  04A3                     __ptext3:	
  1797 ;; *************** function _timerInit *****************
  1798 ;; Defined at:
  1799 ;;		line 28 in file "../source/timer.c"
  1800 ;; Parameters:    Size  Location     Type
  1801 ;;		None
  1802 ;; Auto vars:     Size  Location     Type
  1803 ;;		None
  1804 ;; Return value:  Size  Location     Type
  1805 ;;                  1    wreg      void 
  1806 ;; Registers used:
  1807 ;;		status,2
  1808 ;; Tracked objects:
  1809 ;;		On entry : 0/0
  1810 ;;		On exit  : 0/0
  1811 ;;		Unchanged: 0/0
  1812 ;; Data sizes:     COMMON   BANK0   BANK1
  1813 ;;      Params:         0       0       0
  1814 ;;      Locals:         0       0       0
  1815 ;;      Temps:          0       0       0
  1816 ;;      Totals:         0       0       0
  1817 ;;Total ram usage:        0 bytes
  1818 ;; Hardware stack levels used:    1
  1819 ;; Hardware stack levels required when called:    3
  1820 ;; This function calls:
  1821 ;;		Nothing
  1822 ;; This function is called by:
  1823 ;;		_initialise
  1824 ;; This function uses a non-reentrant model
  1825 ;;
  1826                           
  1827                           
  1828                           ;psect for function _timerInit
  1829  04A3                     _timerInit:	
  1830                           
  1831                           ;timer.c: 30: numTimers = 0;
  1832                           
  1833                           ;incstack = 0
  1834                           ; Regs used in _timerInit: [status,2]
  1835  04A3  01FC               	clrf	_numTimers
  1836                           
  1837                           ;timer.c: 31: numLongTimers = 0;
  1838  04A4  01FB               	clrf	_numLongTimers
  1839                           
  1840                           ;timer.c: 33: T1GCONbits.TMR1GE = 0;
  1841  04A5  0020               	movlb	0	; select bank0
  1842  04A6  1399               	bcf	25,7	;volatile
  1843                           
  1844                           ;timer.c: 35: T1CONbits.TMR1CS1 = 0;
  1845  04A7  1398               	bcf	24,7	;volatile
  1846                           
  1847                           ;timer.c: 36: T1CONbits.TMR1CS0 = 1;
  1848  04A8  1718               	bsf	24,6	;volatile
  1849                           
  1850                           ;timer.c: 37: T1CONbits.T1CKPS1 = 0;
  1851  04A9  1298               	bcf	24,5	;volatile
  1852                           
  1853                           ;timer.c: 38: T1CONbits.T1CKPS0 = 0;
  1854  04AA  1218               	bcf	24,4	;volatile
  1855                           
  1856                           ;timer.c: 40: TMR1 = 32000;
  1857  04AB  307D               	movlw	125
  1858  04AC  0097               	movwf	23	;volatile
  1859  04AD  3000               	movlw	0
  1860  04AE  0096               	movwf	22	;volatile
  1861                           
  1862                           ;timer.c: 42: PIE1bits.TMR1IE = 1;
  1863  04AF  0021               	movlb	1	; select bank1
  1864  04B0  1411               	bsf	17,0	;volatile
  1865                           
  1866                           ;timer.c: 44: INTCONbits.PEIE = 1;
  1867  04B1  170B               	bsf	11,6	;volatile
  1868                           
  1869                           ;timer.c: 45: T1CONbits.TMR1ON = 1;
  1870  04B2  0020               	movlb	0	; select bank0
  1871  04B3  1418               	bsf	24,0	;volatile
  1872  04B4  0008               	return
  1873  04B5                     __end_of_timerInit:	
  1874                           
  1875                           	psect	text4
  1876  05BF                     __ptext4:	
  1877 ;; *************** function _initInterrupt *****************
  1878 ;; Defined at:
  1879 ;;		line 16 in file "../source/interrupt.c"
  1880 ;; Parameters:    Size  Location     Type
  1881 ;;		None
  1882 ;; Auto vars:     Size  Location     Type
  1883 ;;		None
  1884 ;; Return value:  Size  Location     Type
  1885 ;;                  1    wreg      void 
  1886 ;; Registers used:
  1887 ;;		None
  1888 ;; Tracked objects:
  1889 ;;		On entry : 0/0
  1890 ;;		On exit  : 0/0
  1891 ;;		Unchanged: 0/0
  1892 ;; Data sizes:     COMMON   BANK0   BANK1
  1893 ;;      Params:         0       0       0
  1894 ;;      Locals:         0       0       0
  1895 ;;      Temps:          0       0       0
  1896 ;;      Totals:         0       0       0
  1897 ;;Total ram usage:        0 bytes
  1898 ;; Hardware stack levels used:    1
  1899 ;; Hardware stack levels required when called:    3
  1900 ;; This function calls:
  1901 ;;		Nothing
  1902 ;; This function is called by:
  1903 ;;		_initialise
  1904 ;; This function uses a non-reentrant model
  1905 ;;
  1906                           
  1907                           
  1908                           ;psect for function _initInterrupt
  1909  05BF                     _initInterrupt:	
  1910                           
  1911                           ;interrupt.c: 18: INTCONbits.PEIE = 1;
  1912                           
  1913                           ;incstack = 0
  1914                           ; Regs used in _initInterrupt: []
  1915  05BF  170B               	bsf	11,6	;volatile
  1916                           
  1917                           ;interrupt.c: 19: INTCONbits.GIE = 1;
  1918  05C0  178B               	bsf	11,7	;volatile
  1919  05C1  0008               	return
  1920  05C2                     __end_of_initInterrupt:	
  1921                           
  1922                           	psect	text5
  1923  038D                     __ptext5:	
  1924 ;; *************** function _hardwareInit *****************
  1925 ;; Defined at:
  1926 ;;		line 65 in file "../source/main.c"
  1927 ;; Parameters:    Size  Location     Type
  1928 ;;		None
  1929 ;; Auto vars:     Size  Location     Type
  1930 ;;		None
  1931 ;; Return value:  Size  Location     Type
  1932 ;;                  1    wreg      void 
  1933 ;; Registers used:
  1934 ;;		wreg, status,2, status,0
  1935 ;; Tracked objects:
  1936 ;;		On entry : 0/0
  1937 ;;		On exit  : 0/0
  1938 ;;		Unchanged: 0/0
  1939 ;; Data sizes:     COMMON   BANK0   BANK1
  1940 ;;      Params:         0       0       0
  1941 ;;      Locals:         0       0       0
  1942 ;;      Temps:          0       0       0
  1943 ;;      Totals:         0       0       0
  1944 ;;Total ram usage:        0 bytes
  1945 ;; Hardware stack levels used:    1
  1946 ;; Hardware stack levels required when called:    3
  1947 ;; This function calls:
  1948 ;;		Nothing
  1949 ;; This function is called by:
  1950 ;;		_initialise
  1951 ;; This function uses a non-reentrant model
  1952 ;;
  1953                           
  1954                           
  1955                           ;psect for function _hardwareInit
  1956  038D                     _hardwareInit:	
  1957                           
  1958                           ;main.c: 67: OSCCONbits.SCS = 0;
  1959                           
  1960                           ;incstack = 0
  1961                           ; Regs used in _hardwareInit: [wreg+status,2+status,0]
  1962  038D  30FC               	movlw	-4
  1963  038E  0021               	movlb	1	; select bank1
  1964  038F  0599               	andwf	25,f	;volatile
  1965                           
  1966                           ;main.c: 68: OSCCONbits.IRCF = 0xE;
  1967  0390  0819               	movf	25,w	;volatile
  1968  0391  3987               	andlw	-121
  1969  0392  3870               	iorlw	112
  1970  0393  0099               	movwf	25	;volatile
  1971                           
  1972                           ;main.c: 69: OSCCONbits.SPLLEN = 1;
  1973  0394  1799               	bsf	25,7	;volatile
  1974                           
  1975                           ;main.c: 71: TRISAbits.TRISA5 = 0;
  1976  0395  128C               	bcf	12,5	;volatile
  1977                           
  1978                           ;main.c: 73: TRISAbits.TRISA1 = 0;
  1979  0396  108C               	bcf	12,1	;volatile
  1980                           
  1981                           ;main.c: 74: ANSELAbits.ANSA1 = 0;
  1982  0397  0023               	movlb	3	; select bank3
  1983  0398  108C               	bcf	12,1	;volatile
  1984                           
  1985                           ;main.c: 75: LATAbits.LATA1 = 0;
  1986  0399  0022               	movlb	2	; select bank2
  1987  039A  108C               	bcf	12,1	;volatile
  1988                           
  1989                           ;main.c: 77: TRISAbits.TRISA3 = 1;
  1990  039B  0021               	movlb	1	; select bank1
  1991  039C  158C               	bsf	12,3	;volatile
  1992                           
  1993                           ;main.c: 79: TRISAbits.TRISA0 = 0;
  1994  039D  100C               	bcf	12,0	;volatile
  1995                           
  1996                           ;main.c: 80: ANSELAbits.ANSA0 = 0;
  1997  039E  0023               	movlb	3	; select bank3
  1998  039F  100C               	bcf	12,0	;volatile
  1999                           
  2000                           ;main.c: 81: LATAbits.LATA0 = 1;
  2001  03A0  0022               	movlb	2	; select bank2
  2002  03A1  140C               	bsf	12,0	;volatile
  2003                           
  2004                           ;main.c: 83: TRISAbits.TRISA4 = 1;
  2005  03A2  0021               	movlb	1	; select bank1
  2006  03A3  160C               	bsf	12,4	;volatile
  2007                           
  2008                           ;main.c: 84: ANSELAbits.ANSA4 = 0;
  2009  03A4  0023               	movlb	3	; select bank3
  2010  03A5  120C               	bcf	12,4	;volatile
  2011                           
  2012                           ;main.c: 86: TRISAbits.TRISA2 = 1;
  2013  03A6  0021               	movlb	1	; select bank1
  2014  03A7  150C               	bsf	12,2	;volatile
  2015                           
  2016                           ;main.c: 87: ANSELAbits.ANSA2 = 0;
  2017  03A8  0023               	movlb	3	; select bank3
  2018  03A9  110C               	bcf	12,2	;volatile
  2019                           
  2020                           ;main.c: 90: WDTCONbits.SWDTEN = 1;
  2021  03AA  0021               	movlb	1	; select bank1
  2022  03AB  1417               	bsf	23,0	;volatile
  2023  03AC  0008               	return
  2024  03AD                     __end_of_hardwareInit:	
  2025                           
  2026                           	psect	text6
  2027  0586                     __ptext6:	
  2028 ;; *************** function _flashLED *****************
  2029 ;; Defined at:
  2030 ;;		line 31 in file "../source/LED.c"
  2031 ;; Parameters:    Size  Location     Type
  2032 ;;  period          2    0[BANK0 ] int 
  2033 ;; Auto vars:     Size  Location     Type
  2034 ;;		None
  2035 ;; Return value:  Size  Location     Type
  2036 ;;                  1    wreg      void 
  2037 ;; Registers used:
  2038 ;;		wreg
  2039 ;; Tracked objects:
  2040 ;;		On entry : 0/0
  2041 ;;		On exit  : 0/0
  2042 ;;		Unchanged: 0/0
  2043 ;; Data sizes:     COMMON   BANK0   BANK1
  2044 ;;      Params:         0       2       0
  2045 ;;      Locals:         0       0       0
  2046 ;;      Temps:          0       0       0
  2047 ;;      Totals:         0       2       0
  2048 ;;Total ram usage:        2 bytes
  2049 ;; Hardware stack levels used:    1
  2050 ;; Hardware stack levels required when called:    3
  2051 ;; This function calls:
  2052 ;;		Nothing
  2053 ;; This function is called by:
  2054 ;;		_initialise
  2055 ;; This function uses a non-reentrant model
  2056 ;;
  2057                           
  2058                           
  2059                           ;psect for function _flashLED
  2060  0586                     _flashLED:	
  2061                           
  2062                           ;LED.c: 33: flashing = !0;
  2063                           
  2064                           ;incstack = 0
  2065                           ; Regs used in _flashLED: [wreg]
  2066  0586  0020               	movlb	0	; select bank0
  2067  0587  01C1               	clrf	_flashing
  2068  0588  0AC1               	incf	_flashing,f
  2069                           
  2070                           ;LED.c: 34: PORTAbits.RA5 = 0;
  2071  0589  128C               	bcf	12,5	;volatile
  2072                           
  2073                           ;LED.c: 35: flashRate = period;
  2074  058A  084A               	movf	flashLED@period+1,w
  2075  058B  00DE               	movwf	_flashRate+1
  2076  058C  0849               	movf	flashLED@period,w
  2077  058D  00DD               	movwf	_flashRate
  2078                           
  2079                           ;LED.c: 36: flasherToggle = !0;
  2080  058E  01C2               	clrf	_flasherToggle
  2081  058F  0AC2               	incf	_flasherToggle,f
  2082  0590  0008               	return
  2083  0591                     __end_of_flashLED:	
  2084                           
  2085                           	psect	text7
  2086  030A                     __ptext7:	
  2087 ;; *************** function _eventHandlerInit *****************
  2088 ;; Defined at:
  2089 ;;		line 96 in file "../source/eventhandler.c"
  2090 ;; Parameters:    Size  Location     Type
  2091 ;;		None
  2092 ;; Auto vars:     Size  Location     Type
  2093 ;;		None
  2094 ;; Return value:  Size  Location     Type
  2095 ;;                  1    wreg      void 
  2096 ;; Registers used:
  2097 ;;		wreg, fsr1l, fsr1h, status,2, status,0, pclath, cstack
  2098 ;; Tracked objects:
  2099 ;;		On entry : 0/0
  2100 ;;		On exit  : 0/0
  2101 ;;		Unchanged: 0/0
  2102 ;; Data sizes:     COMMON   BANK0   BANK1
  2103 ;;      Params:         0       0       0
  2104 ;;      Locals:         0       0       0
  2105 ;;      Temps:          0       2       0
  2106 ;;      Totals:         0       2       0
  2107 ;;Total ram usage:        2 bytes
  2108 ;; Hardware stack levels used:    1
  2109 ;; Hardware stack levels required when called:    5
  2110 ;; This function calls:
  2111 ;;		_initIOCInterrupt
  2112 ;;		_init_Restart
  2113 ;;		_longTimerGet
  2114 ;;		_timerGet
  2115 ;;		_timerSet
  2116 ;; This function is called by:
  2117 ;;		_initialise
  2118 ;; This function uses a non-reentrant model
  2119 ;;
  2120                           
  2121                           
  2122                           ;psect for function _eventHandlerInit
  2123  030A                     _eventHandlerInit:	
  2124                           
  2125                           ;eventhandler.c: 98: eventHandlerTimer = timerGet ();
  2126                           
  2127                           ;incstack = 0
  2128                           ; Regs used in _eventHandlerInit: [wreg+fsr1l+fsr1h+status,2+status,0+pclath+cstack]
  2129  030A  2510               	fcall	_timerGet
  2130  030B  0020               	movlb	0	; select bank0
  2131  030C  00CD               	movwf	??_eventHandlerInit
  2132  030D  084D               	movf	??_eventHandlerInit,w
  2133  030E  00DF               	movwf	_eventHandlerTimer
  2134                           
  2135                           ;eventhandler.c: 99: timerSet( eventHandlerTimer, 10 );
  2136  030F  300A               	movlw	10
  2137  0310  00C9               	movwf	timerSet@duration
  2138  0311  3000               	movlw	0
  2139  0312  00CA               	movwf	timerSet@duration+1
  2140  0313  085F               	movf	_eventHandlerTimer,w
  2141  0314  24F3               	fcall	_timerSet
  2142                           
  2143                           ;eventhandler.c: 100: initIOCInterrupt();
  2144  0315  2591               	fcall	_initIOCInterrupt
  2145                           
  2146                           ;eventhandler.c: 101: buzzerTimer = timerGet();
  2147  0316  2510               	fcall	_timerGet
  2148  0317  0020               	movlb	0	; select bank0
  2149  0318  00CD               	movwf	??_eventHandlerInit
  2150  0319  01CE               	clrf	??_eventHandlerInit+1
  2151  031A  084D               	movf	??_eventHandlerInit,w
  2152  031B  00F7               	movwf	_buzzerTimer
  2153  031C  084E               	movf	??_eventHandlerInit+1,w
  2154  031D  00F8               	movwf	_buzzerTimer+1
  2155                           
  2156                           ;eventhandler.c: 102: initSMTimer = timerGet();
  2157  031E  2510               	fcall	_timerGet
  2158  031F  0020               	movlb	0	; select bank0
  2159  0320  00CD               	movwf	??_eventHandlerInit
  2160  0321  01CE               	clrf	??_eventHandlerInit+1
  2161  0322  084D               	movf	??_eventHandlerInit,w
  2162  0323  00BB               	movwf	_initSMTimer
  2163  0324  084E               	movf	??_eventHandlerInit+1,w
  2164  0325  00BC               	movwf	_initSMTimer+1
  2165                           
  2166                           ;eventhandler.c: 103: runSMTimer = timerGet();
  2167  0326  2510               	fcall	_timerGet
  2168  0327  0020               	movlb	0	; select bank0
  2169  0328  00CD               	movwf	??_eventHandlerInit
  2170  0329  01CE               	clrf	??_eventHandlerInit+1
  2171  032A  084D               	movf	??_eventHandlerInit,w
  2172  032B  00B9               	movwf	_runSMTimer
  2173  032C  084E               	movf	??_eventHandlerInit+1,w
  2174  032D  00BA               	movwf	_runSMTimer+1
  2175                           
  2176                           ;eventhandler.c: 104: minuteTimer = longTimerGet();
  2177  032E  2502               	fcall	_longTimerGet
  2178  032F  0020               	movlb	0	; select bank0
  2179  0330  00CD               	movwf	??_eventHandlerInit
  2180  0331  01CE               	clrf	??_eventHandlerInit+1
  2181  0332  084D               	movf	??_eventHandlerInit,w
  2182  0333  00B7               	movwf	_minuteTimer
  2183  0334  084E               	movf	??_eventHandlerInit+1,w
  2184  0335  00B8               	movwf	_minuteTimer+1
  2185                           
  2186                           ;eventhandler.c: 105: init_Restart();
  2187  0336  24B5               	fcall	_init_Restart
  2188  0337  0008               	return
  2189  0338                     __end_of_eventHandlerInit:	
  2190                           
  2191                           	psect	text8
  2192  0502                     __ptext8:	
  2193 ;; *************** function _longTimerGet *****************
  2194 ;; Defined at:
  2195 ;;		line 189 in file "../source/timer.c"
  2196 ;; Parameters:    Size  Location     Type
  2197 ;;		None
  2198 ;; Auto vars:     Size  Location     Type
  2199 ;;  result          1    3[BANK0 ] unsigned char 
  2200 ;; Return value:  Size  Location     Type
  2201 ;;                  1    wreg      unsigned char 
  2202 ;; Registers used:
  2203 ;;		wreg, fsr1l, fsr1h, status,2, status,0, pclath, cstack
  2204 ;; Tracked objects:
  2205 ;;		On entry : 0/0
  2206 ;;		On exit  : 0/0
  2207 ;;		Unchanged: 0/0
  2208 ;; Data sizes:     COMMON   BANK0   BANK1
  2209 ;;      Params:         0       0       0
  2210 ;;      Locals:         0       1       0
  2211 ;;      Temps:          0       1       0
  2212 ;;      Totals:         0       2       0
  2213 ;;Total ram usage:        2 bytes
  2214 ;; Hardware stack levels used:    1
  2215 ;; Hardware stack levels required when called:    4
  2216 ;; This function calls:
  2217 ;;		_longTimerLock
  2218 ;; This function is called by:
  2219 ;;		_eventHandlerInit
  2220 ;; This function uses a non-reentrant model
  2221 ;;
  2222                           
  2223                           
  2224                           ;psect for function _longTimerGet
  2225  0502                     _longTimerGet:	
  2226                           
  2227                           ;timer.c: 191: LTTimerIndex result;
  2228                           ;timer.c: 193: result = numLongTimers;
  2229                           
  2230                           ;incstack = 0
  2231                           ; Regs used in _longTimerGet: [wreg+fsr1l+fsr1h+status,2+status,0+pclath+cstack]
  2232  0502  087B               	movf	_numLongTimers,w
  2233  0503  0020               	movlb	0	; select bank0
  2234  0504  00CB               	movwf	??_longTimerGet
  2235  0505  084B               	movf	??_longTimerGet,w
  2236  0506  00CC               	movwf	longTimerGet@result
  2237                           
  2238                           ;timer.c: 194: numLongTimers++;
  2239  0507  3001               	movlw	1
  2240  0508  00CB               	movwf	??_longTimerGet
  2241  0509  084B               	movf	??_longTimerGet,w
  2242  050A  07FB               	addwf	_numLongTimers,f
  2243                           
  2244                           ;timer.c: 195: longTimerLock( result );
  2245  050B  084C               	movf	longTimerGet@result,w
  2246  050C  23FE               	fcall	_longTimerLock
  2247                           
  2248                           ;timer.c: 196: return ( result );
  2249  050D  0020               	movlb	0	; select bank0
  2250  050E  084C               	movf	longTimerGet@result,w
  2251  050F  0008               	return
  2252  0510                     __end_of_longTimerGet:	
  2253                           
  2254                           	psect	text9
  2255  0591                     __ptext9:	
  2256 ;; *************** function _initIOCInterrupt *****************
  2257 ;; Defined at:
  2258 ;;		line 38 in file "../source/eventhandler.c"
  2259 ;; Parameters:    Size  Location     Type
  2260 ;;		None
  2261 ;; Auto vars:     Size  Location     Type
  2262 ;;		None
  2263 ;; Return value:  Size  Location     Type
  2264 ;;                  1    wreg      void 
  2265 ;; Registers used:
  2266 ;;		None
  2267 ;; Tracked objects:
  2268 ;;		On entry : 0/0
  2269 ;;		On exit  : 0/0
  2270 ;;		Unchanged: 0/0
  2271 ;; Data sizes:     COMMON   BANK0   BANK1
  2272 ;;      Params:         0       0       0
  2273 ;;      Locals:         0       0       0
  2274 ;;      Temps:          0       0       0
  2275 ;;      Totals:         0       0       0
  2276 ;;Total ram usage:        0 bytes
  2277 ;; Hardware stack levels used:    1
  2278 ;; Hardware stack levels required when called:    3
  2279 ;; This function calls:
  2280 ;;		Nothing
  2281 ;; This function is called by:
  2282 ;;		_eventHandlerInit
  2283 ;; This function uses a non-reentrant model
  2284 ;;
  2285                           
  2286                           
  2287                           ;psect for function _initIOCInterrupt
  2288  0591                     _initIOCInterrupt:	
  2289                           
  2290                           ;eventhandler.c: 40: INTCONbits.GIE = 1;
  2291                           
  2292                           ;incstack = 0
  2293                           ; Regs used in _initIOCInterrupt: []
  2294  0591  178B               	bsf	11,7	;volatile
  2295                           
  2296                           ;eventhandler.c: 41: IOCANbits.IOCAN3 = 1;
  2297  0592  0027               	movlb	7	; select bank7
  2298  0593  1592               	bsf	18,3	;volatile
  2299                           
  2300                           ;eventhandler.c: 42: IOCANbits.IOCAN2 = 1;
  2301  0594  1512               	bsf	18,2	;volatile
  2302                           
  2303                           ;eventhandler.c: 43: IOCAPbits.IOCAP2 = 1;
  2304  0595  1511               	bsf	17,2	;volatile
  2305                           
  2306                           ;eventhandler.c: 44: IOCANbits.IOCAN4 = 1;
  2307  0596  1612               	bsf	18,4	;volatile
  2308                           
  2309                           ;eventhandler.c: 45: IOCAPbits.IOCAP4 = 1;
  2310  0597  1611               	bsf	17,4	;volatile
  2311                           
  2312                           ;eventhandler.c: 46: INTCONbits.IOCIF = 0;
  2313  0598  100B               	bcf	11,0	;volatile
  2314                           
  2315                           ;eventhandler.c: 47: INTCONbits.IOCIE = 1;
  2316  0599  158B               	bsf	11,3	;volatile
  2317                           
  2318                           ;eventhandler.c: 48: INTCONbits.PEIE = 1;
  2319  059A  170B               	bsf	11,6	;volatile
  2320  059B  0008               	return
  2321  059C                     __end_of_initIOCInterrupt:	
  2322                           
  2323                           	psect	text10
  2324  04C6                     __ptext10:	
  2325 ;; *************** function _beeperInit *****************
  2326 ;; Defined at:
  2327 ;;		line 95 in file "../source/beeper.c"
  2328 ;; Parameters:    Size  Location     Type
  2329 ;;		None
  2330 ;; Auto vars:     Size  Location     Type
  2331 ;;		None
  2332 ;; Return value:  Size  Location     Type
  2333 ;;                  1    wreg      void 
  2334 ;; Registers used:
  2335 ;;		wreg, fsr1l, fsr1h, status,2, status,0, pclath, cstack
  2336 ;; Tracked objects:
  2337 ;;		On entry : 0/0
  2338 ;;		On exit  : 0/0
  2339 ;;		Unchanged: 0/0
  2340 ;; Data sizes:     COMMON   BANK0   BANK1
  2341 ;;      Params:         0       0       0
  2342 ;;      Locals:         0       0       0
  2343 ;;      Temps:          0       1       0
  2344 ;;      Totals:         0       1       0
  2345 ;;Total ram usage:        1 bytes
  2346 ;; Hardware stack levels used:    1
  2347 ;; Hardware stack levels required when called:    5
  2348 ;; This function calls:
  2349 ;;		_timer2Init
  2350 ;;		_timerGet
  2351 ;;		_timerSet
  2352 ;; This function is called by:
  2353 ;;		_initialise
  2354 ;; This function uses a non-reentrant model
  2355 ;;
  2356                           
  2357                           
  2358                           ;psect for function _beeperInit
  2359  04C6                     _beeperInit:	
  2360                           
  2361                           ;beeper.c: 97: timer2Init();
  2362                           
  2363                           ;incstack = 0
  2364                           ; Regs used in _beeperInit: [wreg+fsr1l+fsr1h+status,2+status,0+pclath+cstack]
  2365  04C6  24D5               	fcall	_timer2Init
  2366                           
  2367                           ;beeper.c: 98: beeperOn = 0;
  2368  04C7  0020               	movlb	0	; select bank0
  2369  04C8  01BD               	clrf	_beeperOn
  2370                           
  2371                           ;beeper.c: 99: beeperTimer = timerGet ();
  2372  04C9  2510               	fcall	_timerGet
  2373  04CA  0020               	movlb	0	; select bank0
  2374  04CB  00CC               	movwf	??_beeperInit
  2375  04CC  084C               	movf	??_beeperInit,w
  2376  04CD  00C0               	movwf	_beeperTimer
  2377                           
  2378                           ;beeper.c: 100: timerSet( beeperTimer, beepRate );
  2379  04CE  085C               	movf	_beepRate+1,w
  2380  04CF  00CA               	movwf	timerSet@duration+1
  2381  04D0  085B               	movf	_beepRate,w
  2382  04D1  00C9               	movwf	timerSet@duration
  2383  04D2  0840               	movf	_beeperTimer,w
  2384  04D3  24F3               	fcall	_timerSet
  2385  04D4  0008               	return
  2386  04D5                     __end_of_beeperInit:	
  2387                           
  2388                           	psect	text11
  2389  04D5                     __ptext11:	
  2390 ;; *************** function _timer2Init *****************
  2391 ;; Defined at:
  2392 ;;		line 29 in file "../source/beeper.c"
  2393 ;; Parameters:    Size  Location     Type
  2394 ;;		None
  2395 ;; Auto vars:     Size  Location     Type
  2396 ;;		None
  2397 ;; Return value:  Size  Location     Type
  2398 ;;                  1    wreg      void 
  2399 ;; Registers used:
  2400 ;;		wreg, status,2, status,0
  2401 ;; Tracked objects:
  2402 ;;		On entry : 0/0
  2403 ;;		On exit  : 0/0
  2404 ;;		Unchanged: 0/0
  2405 ;; Data sizes:     COMMON   BANK0   BANK1
  2406 ;;      Params:         0       0       0
  2407 ;;      Locals:         0       0       0
  2408 ;;      Temps:          0       0       0
  2409 ;;      Totals:         0       0       0
  2410 ;;Total ram usage:        0 bytes
  2411 ;; Hardware stack levels used:    1
  2412 ;; Hardware stack levels required when called:    3
  2413 ;; This function calls:
  2414 ;;		Nothing
  2415 ;; This function is called by:
  2416 ;;		_beeperInit
  2417 ;; This function uses a non-reentrant model
  2418 ;;
  2419                           
  2420                           
  2421                           ;psect for function _timer2Init
  2422  04D5                     _timer2Init:	
  2423                           
  2424                           ;beeper.c: 32: T2CONbits.T2CKPS = 0b00;
  2425                           
  2426                           ;incstack = 0
  2427                           ; Regs used in _timer2Init: [wreg+status,2+status,0]
  2428  04D5  30FC               	movlw	-4
  2429  04D6  0020               	movlb	0	; select bank0
  2430  04D7  059C               	andwf	28,f	;volatile
  2431                           
  2432                           ;beeper.c: 33: T2CONbits.T2OUTPS = 0b0111;;
  2433  04D8  081C               	movf	28,w	;volatile
  2434  04D9  3987               	andlw	-121
  2435  04DA  3838               	iorlw	56
  2436  04DB  009C               	movwf	28	;volatile
  2437                           
  2438                           ;beeper.c: 35: PR2 = 0x65;
  2439  04DC  3065               	movlw	101
  2440  04DD  009B               	movwf	27	;volatile
  2441                           
  2442                           ;beeper.c: 37: PIE1bits.TMR2IE = 1;
  2443  04DE  0021               	movlb	1	; select bank1
  2444  04DF  1491               	bsf	17,1	;volatile
  2445                           
  2446                           ;beeper.c: 39: INTCONbits.PEIE = 1;
  2447  04E0  170B               	bsf	11,6	;volatile
  2448                           
  2449                           ;beeper.c: 40: T2CONbits.TMR2ON = 1;
  2450  04E1  0020               	movlb	0	; select bank0
  2451  04E2  151C               	bsf	28,2	;volatile
  2452  04E3  0008               	return
  2453  04E4                     __end_of_timer2Init:	
  2454                           
  2455                           	psect	text12
  2456  057A                     __ptext12:	
  2457 ;; *************** function _LEDInit *****************
  2458 ;; Defined at:
  2459 ;;		line 40 in file "../source/LED.c"
  2460 ;; Parameters:    Size  Location     Type
  2461 ;;		None
  2462 ;; Auto vars:     Size  Location     Type
  2463 ;;		None
  2464 ;; Return value:  Size  Location     Type
  2465 ;;                  1    wreg      void 
  2466 ;; Registers used:
  2467 ;;		wreg, fsr1l, fsr1h, status,2, status,0, pclath, cstack
  2468 ;; Tracked objects:
  2469 ;;		On entry : 0/0
  2470 ;;		On exit  : 0/0
  2471 ;;		Unchanged: 0/0
  2472 ;; Data sizes:     COMMON   BANK0   BANK1
  2473 ;;      Params:         0       0       0
  2474 ;;      Locals:         0       0       0
  2475 ;;      Temps:          0       1       0
  2476 ;;      Totals:         0       1       0
  2477 ;;Total ram usage:        1 bytes
  2478 ;; Hardware stack levels used:    1
  2479 ;; Hardware stack levels required when called:    5
  2480 ;; This function calls:
  2481 ;;		_timerGet
  2482 ;;		_timerSet
  2483 ;; This function is called by:
  2484 ;;		_initialise
  2485 ;; This function uses a non-reentrant model
  2486 ;;
  2487                           
  2488                           
  2489                           ;psect for function _LEDInit
  2490  057A                     _LEDInit:	
  2491                           
  2492                           ;LED.c: 42: LEDTimer = timerGet ();
  2493                           
  2494                           ;incstack = 0
  2495                           ; Regs used in _LEDInit: [wreg+fsr1l+fsr1h+status,2+status,0+pclath+cstack]
  2496  057A  2510               	fcall	_timerGet
  2497  057B  0020               	movlb	0	; select bank0
  2498  057C  00CC               	movwf	??_LEDInit
  2499  057D  084C               	movf	??_LEDInit,w
  2500  057E  00C3               	movwf	_LEDTimer
  2501                           
  2502                           ;LED.c: 44: timerSet( LEDTimer, flashRate );
  2503  057F  085E               	movf	_flashRate+1,w
  2504  0580  00CA               	movwf	timerSet@duration+1
  2505  0581  085D               	movf	_flashRate,w
  2506  0582  00C9               	movwf	timerSet@duration
  2507  0583  0843               	movf	_LEDTimer,w
  2508  0584  24F3               	fcall	_timerSet
  2509  0585  0008               	return
  2510  0586                     __end_of_LEDInit:	
  2511                           
  2512                           	psect	text13
  2513  0510                     __ptext13:	
  2514 ;; *************** function _timerGet *****************
  2515 ;; Defined at:
  2516 ;;		line 104 in file "../source/timer.c"
  2517 ;; Parameters:    Size  Location     Type
  2518 ;;		None
  2519 ;; Auto vars:     Size  Location     Type
  2520 ;;  result          1    2[BANK0 ] unsigned char 
  2521 ;; Return value:  Size  Location     Type
  2522 ;;                  1    wreg      unsigned char 
  2523 ;; Registers used:
  2524 ;;		wreg, fsr1l, fsr1h, status,2, status,0, pclath, cstack
  2525 ;; Tracked objects:
  2526 ;;		On entry : 0/0
  2527 ;;		On exit  : 0/0
  2528 ;;		Unchanged: 0/0
  2529 ;; Data sizes:     COMMON   BANK0   BANK1
  2530 ;;      Params:         0       0       0
  2531 ;;      Locals:         0       1       0
  2532 ;;      Temps:          0       1       0
  2533 ;;      Totals:         0       2       0
  2534 ;;Total ram usage:        2 bytes
  2535 ;; Hardware stack levels used:    1
  2536 ;; Hardware stack levels required when called:    4
  2537 ;; This function calls:
  2538 ;;		_timerLock
  2539 ;; This function is called by:
  2540 ;;		_eventHandlerInit
  2541 ;;		_LEDInit
  2542 ;;		_beeperInit
  2543 ;; This function uses a non-reentrant model
  2544 ;;
  2545                           
  2546                           
  2547                           ;psect for function _timerGet
  2548  0510                     _timerGet:	
  2549                           
  2550                           ;timer.c: 106: TTimerIndex result;
  2551                           ;timer.c: 108: result = numTimers;
  2552                           
  2553                           ;incstack = 0
  2554                           ; Regs used in _timerGet: [wreg+fsr1l+fsr1h+status,2+status,0+pclath+cstack]
  2555  0510  087C               	movf	_numTimers,w
  2556  0511  0020               	movlb	0	; select bank0
  2557  0512  00CA               	movwf	??_timerGet
  2558  0513  084A               	movf	??_timerGet,w
  2559  0514  00CB               	movwf	timerGet@result
  2560                           
  2561                           ;timer.c: 109: numTimers++;
  2562  0515  3001               	movlw	1
  2563  0516  00CA               	movwf	??_timerGet
  2564  0517  084A               	movf	??_timerGet,w
  2565  0518  07FC               	addwf	_numTimers,f
  2566                           
  2567                           ;timer.c: 110: timerLock( result );
  2568  0519  084B               	movf	timerGet@result,w
  2569  051A  24E4               	fcall	_timerLock
  2570                           
  2571                           ;timer.c: 111: return ( result );
  2572  051B  0020               	movlb	0	; select bank0
  2573  051C  084B               	movf	timerGet@result,w
  2574  051D  0008               	return
  2575  051E                     __end_of_timerGet:	
  2576                           
  2577                           	psect	text14
  2578  0220                     __ptext14:	
  2579 ;; *************** function _eventHandlerService *****************
  2580 ;; Defined at:
  2581 ;;		line 109 in file "../source/eventhandler.c"
  2582 ;; Parameters:    Size  Location     Type
  2583 ;;		None
  2584 ;; Auto vars:     Size  Location     Type
  2585 ;;		None
  2586 ;; Return value:  Size  Location     Type
  2587 ;;                  1    wreg      void 
  2588 ;; Registers used:
  2589 ;;		wreg, fsr0l, fsr0h, fsr1l, fsr1h, status,2, status,0, pclath, cstack
  2590 ;; Tracked objects:
  2591 ;;		On entry : 0/0
  2592 ;;		On exit  : 0/0
  2593 ;;		Unchanged: 0/0
  2594 ;; Data sizes:     COMMON   BANK0   BANK1
  2595 ;;      Params:         0       0       0
  2596 ;;      Locals:         0       0       0
  2597 ;;      Temps:          0       8       0
  2598 ;;      Totals:         0       8       0
  2599 ;;Total ram usage:        8 bytes
  2600 ;; Hardware stack levels used:    1
  2601 ;; Hardware stack levels required when called:    5
  2602 ;; This function calls:
  2603 ;;		___wmul
  2604 ;;		_getInitEvent
  2605 ;;		_getRunEvent
  2606 ;;		_initS1_Timeout
  2607 ;;		_initS2_Timeout
  2608 ;;		_initS3_greenHigh
  2609 ;;		_initS4_greenLow
  2610 ;;		_initS5_redHigh
  2611 ;;		_initS6_redLow
  2612 ;;		_initS7_bothHigh
  2613 ;;		_initS8_bothLow
  2614 ;;		_init_NoAction
  2615 ;;		_init_Restart
  2616 ;;		_runS1_Error
  2617 ;;		_runS1_Initialised
  2618 ;;		_runS1_Timeout
  2619 ;;		_runS2_BeepReceived
  2620 ;;		_runS2_Error
  2621 ;;		_runS2_Timeout
  2622 ;;		_runS3_Error
  2623 ;;		_runS3_GreenFlashing
  2624 ;;		_runS3_Timeout
  2625 ;;		_runS4_Error
  2626 ;;		_runS4_GreenSteadyLow
  2627 ;;		_runS4_Timeout
  2628 ;;		_run_NoAction
  2629 ;;		_timerRead
  2630 ;;		_timerSet
  2631 ;; This function is called by:
  2632 ;;		_main
  2633 ;; This function uses a non-reentrant model
  2634 ;;
  2635                           
  2636                           
  2637                           ;psect for function _eventHandlerService
  2638  0220                     _eventHandlerService:	
  2639                           
  2640                           ;eventhandler.c: 111: if ( timerRead(eventHandlerTimer) == 0 )
  2641                           
  2642                           ;incstack = 0
  2643                           ; Regs used in _eventHandlerService: [wreg-fsr1h+status,2+status,0+pclath+cstack]
  2644  0220  0020               	movlb	0	; select bank0
  2645  0221  085F               	movf	_eventHandlerTimer,w
  2646  0222  2478               	fcall	_timerRead
  2647  0223  0020               	movlb	0	; select bank0
  2648  0224  0849               	movf	?_timerRead,w
  2649  0225  044A               	iorwf	?_timerRead+1,w
  2650  0226  1D03               	btfss	3,2
  2651  0227  0008               	return
  2652                           
  2653                           ;eventhandler.c: 112: {
  2654                           ;eventhandler.c: 113: initEvent = getInitEvent ();
  2655  0228  218D               	fcall	_getInitEvent
  2656  0229  0020               	movlb	0	; select bank0
  2657  022A  00D3               	movwf	??_eventHandlerService
  2658  022B  0853               	movf	??_eventHandlerService,w
  2659  022C  00C7               	movwf	_initEvent
  2660                           
  2661                           ;eventhandler.c: 115: if (((initEvent >= 0) && (initEvent < maxInitEvents))
  2662                           ;eventhandler.c: 116: && ((initState >= 0) && (initState < maxInitStates))) {
  2663  022D  3008               	movlw	8
  2664  022E  0247               	subwf	_initEvent,w
  2665  022F  1803               	skipnc
  2666  0230  2A5C               	goto	l2514
  2667  0231  3009               	movlw	9
  2668  0232  0248               	subwf	_initState,w
  2669  0233  1803               	skipnc
  2670  0234  2A5C               	goto	l2514
  2671                           
  2672                           ;eventhandler.c: 118: initStateTable [initState][initEvent] ();
  2673  0235  0847               	movf	_initEvent,w
  2674  0236  00D3               	movwf	??_eventHandlerService
  2675  0237  01D4               	clrf	??_eventHandlerService+1
  2676  0238  35D3               	lslf	??_eventHandlerService,f
  2677  0239  0DD4               	rlf	??_eventHandlerService+1,f
  2678  023A  0848               	movf	_initState,w
  2679  023B  00D5               	movwf	??_eventHandlerService+2
  2680  023C  01D6               	clrf	??_eventHandlerService+3
  2681  023D  0ED5               	swapf	??_eventHandlerService+2,f
  2682  023E  0ED6               	swapf	??_eventHandlerService+3,f
  2683  023F  30F0               	movlw	240
  2684  0240  05D6               	andwf	??_eventHandlerService+3,f
  2685  0241  0855               	movf	??_eventHandlerService+2,w
  2686  0242  390F               	andlw	15
  2687  0243  04D6               	iorwf	??_eventHandlerService+3,f
  2688  0244  30F0               	movlw	240
  2689  0245  05D5               	andwf	??_eventHandlerService+2,f
  2690  0246  302F               	movlw	low (_initStateTable| (0+32768))
  2691  0247  00D7               	movwf	??_eventHandlerService+4
  2692  0248  3080               	movlw	high (_initStateTable| (0+32768))
  2693  0249  00D8               	movwf	??_eventHandlerService+5
  2694  024A  0855               	movf	??_eventHandlerService+2,w
  2695  024B  0757               	addwf	??_eventHandlerService+4,w
  2696  024C  00D9               	movwf	??_eventHandlerService+6
  2697  024D  0856               	movf	??_eventHandlerService+3,w
  2698  024E  3D58               	addwfc	??_eventHandlerService+5,w
  2699  024F  00DA               	movwf	??_eventHandlerService+7
  2700  0250  0859               	movf	??_eventHandlerService+6,w
  2701  0251  0753               	addwf	??_eventHandlerService,w
  2702  0252  0084               	movwf	4
  2703  0253  085A               	movf	??_eventHandlerService+7,w
  2704  0254  3D54               	addwfc	??_eventHandlerService+1,w
  2705  0255  0085               	movwf	5
  2706  0256  3F01               	moviw [1]fsr0
  2707  0257  008A               	movwf	10
  2708  0258  3F00               	moviw [0]fsr0
  2709  0259  000A               	callw
  2710  025A  3182               	pagesel	$
  2711                           
  2712                           ;eventhandler.c: 120: } else
  2713  025B  2A5D               	goto	l140
  2714  025C                     l2514:	
  2715                           
  2716                           ;eventhandler.c: 121: {
  2717                           ;eventhandler.c: 123: init_Restart();
  2718  025C  24B5               	fcall	_init_Restart
  2719  025D                     l140:	
  2720                           
  2721                           ;eventhandler.c: 124: }
  2722                           ;eventhandler.c: 126: runEvent = getRunEvent ();
  2723  025D  229B               	fcall	_getRunEvent
  2724  025E  0020               	movlb	0	; select bank0
  2725  025F  00D3               	movwf	??_eventHandlerService
  2726  0260  0853               	movf	??_eventHandlerService,w
  2727  0261  00C5               	movwf	_runEvent
  2728                           
  2729                           ;eventhandler.c: 128: if (((runEvent >= 0) && (runEvent < maxRunEvents))
  2730                           ;eventhandler.c: 129: && ((runState >= 0) && (runState < maxRunStates))) {
  2731  0262  3007               	movlw	7
  2732  0263  0245               	subwf	_runEvent,w
  2733  0264  1803               	skipnc
  2734  0265  2A92               	goto	l2522
  2735  0266  3004               	movlw	4
  2736  0267  0246               	subwf	_runState,w
  2737  0268  1803               	skipnc
  2738  0269  2A92               	goto	l2522
  2739                           
  2740                           ;eventhandler.c: 131: runStateTable [runState][runEvent] ();
  2741  026A  0845               	movf	_runEvent,w
  2742  026B  00D3               	movwf	??_eventHandlerService
  2743  026C  01D4               	clrf	??_eventHandlerService+1
  2744  026D  35D3               	lslf	??_eventHandlerService,f
  2745  026E  0DD4               	rlf	??_eventHandlerService+1,f
  2746  026F  0846               	movf	_runState,w
  2747  0270  00D5               	movwf	??_eventHandlerService+2
  2748  0271  01D6               	clrf	??_eventHandlerService+3
  2749  0272  0855               	movf	??_eventHandlerService+2,w
  2750  0273  00C9               	movwf	___wmul@multiplier
  2751  0274  0856               	movf	??_eventHandlerService+3,w
  2752  0275  00CA               	movwf	___wmul@multiplier+1
  2753  0276  300E               	movlw	14
  2754  0277  00CB               	movwf	___wmul@multiplicand
  2755  0278  3000               	movlw	0
  2756  0279  00CC               	movwf	___wmul@multiplicand+1
  2757  027A  23AD               	fcall	___wmul
  2758  027B  30BF               	movlw	low (_runStateTable| (0+32768))
  2759  027C  0020               	movlb	0	; select bank0
  2760  027D  00D7               	movwf	??_eventHandlerService+4
  2761  027E  3080               	movlw	high (_runStateTable| (0+32768))
  2762  027F  00D8               	movwf	??_eventHandlerService+5
  2763  0280  0849               	movf	?___wmul,w
  2764  0281  0757               	addwf	??_eventHandlerService+4,w
  2765  0282  00D9               	movwf	??_eventHandlerService+6
  2766  0283  084A               	movf	?___wmul+1,w
  2767  0284  3D58               	addwfc	??_eventHandlerService+5,w
  2768  0285  00DA               	movwf	??_eventHandlerService+7
  2769  0286  0859               	movf	??_eventHandlerService+6,w
  2770  0287  0753               	addwf	??_eventHandlerService,w
  2771  0288  0084               	movwf	4
  2772  0289  085A               	movf	??_eventHandlerService+7,w
  2773  028A  3D54               	addwfc	??_eventHandlerService+1,w
  2774  028B  0085               	movwf	5
  2775  028C  3F01               	moviw [1]fsr0
  2776  028D  008A               	movwf	10
  2777  028E  3F00               	moviw [0]fsr0
  2778  028F  000A               	callw
  2779  0290  3182               	pagesel	$
  2780                           
  2781                           ;eventhandler.c: 133: } else
  2782  0291  2A93               	goto	l142
  2783  0292                     l2522:	
  2784                           
  2785                           ;eventhandler.c: 134: {
  2786                           ;eventhandler.c: 136: init_Restart();
  2787  0292  24B5               	fcall	_init_Restart
  2788  0293                     l142:	
  2789                           
  2790                           ;eventhandler.c: 137: }
  2791                           ;eventhandler.c: 139: timerSet( eventHandlerTimer, 10 );
  2792  0293  300A               	movlw	10
  2793  0294  0020               	movlb	0	; select bank0
  2794  0295  00C9               	movwf	timerSet@duration
  2795  0296  3000               	movlw	0
  2796  0297  00CA               	movwf	timerSet@duration+1
  2797  0298  085F               	movf	_eventHandlerTimer,w
  2798  0299  24F3               	fcall	_timerSet
  2799  029A  0008               	return
  2800  029B                     __end_of_eventHandlerService:	
  2801                           
  2802                           	psect	text15
  2803  05C4                     __ptext15:	
  2804 ;; *************** function _runS4_Error *****************
  2805 ;; Defined at:
  2806 ;;		line 351 in file "../source/eventhandler.c"
  2807 ;; Parameters:    Size  Location     Type
  2808 ;;		None
  2809 ;; Auto vars:     Size  Location     Type
  2810 ;;		None
  2811 ;; Return value:  Size  Location     Type
  2812 ;;                  1    wreg      void 
  2813 ;; Registers used:
  2814 ;;		None
  2815 ;; Tracked objects:
  2816 ;;		On entry : 0/0
  2817 ;;		On exit  : 0/0
  2818 ;;		Unchanged: 0/0
  2819 ;; Data sizes:     COMMON   BANK0   BANK1
  2820 ;;      Params:         0       0       0
  2821 ;;      Locals:         0       0       0
  2822 ;;      Temps:          0       0       0
  2823 ;;      Totals:         0       0       0
  2824 ;;Total ram usage:        0 bytes
  2825 ;; Hardware stack levels used:    1
  2826 ;; Hardware stack levels required when called:    3
  2827 ;; This function calls:
  2828 ;;		Nothing
  2829 ;; This function is called by:
  2830 ;;		_eventHandlerService
  2831 ;; This function uses a non-reentrant model
  2832 ;;
  2833                           
  2834                           
  2835                           ;psect for function _runS4_Error
  2836  05C4                     _runS4_Error:	
  2837                           
  2838                           ;incstack = 0
  2839                           ; Regs used in _runS4_Error: []
  2840  05C4  0008               	return
  2841  05C5                     __end_of_runS4_Error:	
  2842                           
  2843                           	psect	text16
  2844  05C5                     __ptext16:	
  2845 ;; *************** function _runS4_GreenSteadyLow *****************
  2846 ;; Defined at:
  2847 ;;		line 361 in file "../source/eventhandler.c"
  2848 ;; Parameters:    Size  Location     Type
  2849 ;;		None
  2850 ;; Auto vars:     Size  Location     Type
  2851 ;;		None
  2852 ;; Return value:  Size  Location     Type
  2853 ;;                  1    wreg      void 
  2854 ;; Registers used:
  2855 ;;		None
  2856 ;; Tracked objects:
  2857 ;;		On entry : 0/0
  2858 ;;		On exit  : 0/0
  2859 ;;		Unchanged: 0/0
  2860 ;; Data sizes:     COMMON   BANK0   BANK1
  2861 ;;      Params:         0       0       0
  2862 ;;      Locals:         0       0       0
  2863 ;;      Temps:          0       0       0
  2864 ;;      Totals:         0       0       0
  2865 ;;Total ram usage:        0 bytes
  2866 ;; Hardware stack levels used:    1
  2867 ;; Hardware stack levels required when called:    3
  2868 ;; This function calls:
  2869 ;;		Nothing
  2870 ;; This function is called by:
  2871 ;;		_eventHandlerService
  2872 ;; This function uses a non-reentrant model
  2873 ;;
  2874                           
  2875                           
  2876                           ;psect for function _runS4_GreenSteadyLow
  2877  05C5                     _runS4_GreenSteadyLow:	
  2878                           
  2879                           ;incstack = 0
  2880                           ; Regs used in _runS4_GreenSteadyLow: []
  2881  05C5  0008               	return
  2882  05C6                     __end_of_runS4_GreenSteadyLow:	
  2883                           
  2884                           	psect	text17
  2885  05C6                     __ptext17:	
  2886 ;; *************** function _runS4_Timeout *****************
  2887 ;; Defined at:
  2888 ;;		line 356 in file "../source/eventhandler.c"
  2889 ;; Parameters:    Size  Location     Type
  2890 ;;		None
  2891 ;; Auto vars:     Size  Location     Type
  2892 ;;		None
  2893 ;; Return value:  Size  Location     Type
  2894 ;;                  1    wreg      void 
  2895 ;; Registers used:
  2896 ;;		None
  2897 ;; Tracked objects:
  2898 ;;		On entry : 0/0
  2899 ;;		On exit  : 0/0
  2900 ;;		Unchanged: 0/0
  2901 ;; Data sizes:     COMMON   BANK0   BANK1
  2902 ;;      Params:         0       0       0
  2903 ;;      Locals:         0       0       0
  2904 ;;      Temps:          0       0       0
  2905 ;;      Totals:         0       0       0
  2906 ;;Total ram usage:        0 bytes
  2907 ;; Hardware stack levels used:    1
  2908 ;; Hardware stack levels required when called:    3
  2909 ;; This function calls:
  2910 ;;		Nothing
  2911 ;; This function is called by:
  2912 ;;		_eventHandlerService
  2913 ;; This function uses a non-reentrant model
  2914 ;;
  2915                           
  2916                           
  2917                           ;psect for function _runS4_Timeout
  2918  05C6                     _runS4_Timeout:	
  2919                           
  2920                           ;incstack = 0
  2921                           ; Regs used in _runS4_Timeout: []
  2922  05C6  0008               	return
  2923  05C7                     __end_of_runS4_Timeout:	
  2924                           
  2925                           	psect	text18
  2926  05C7                     __ptext18:	
  2927 ;; *************** function _runS3_GreenFlashing *****************
  2928 ;; Defined at:
  2929 ;;		line 346 in file "../source/eventhandler.c"
  2930 ;; Parameters:    Size  Location     Type
  2931 ;;		None
  2932 ;; Auto vars:     Size  Location     Type
  2933 ;;		None
  2934 ;; Return value:  Size  Location     Type
  2935 ;;                  1    wreg      void 
  2936 ;; Registers used:
  2937 ;;		None
  2938 ;; Tracked objects:
  2939 ;;		On entry : 0/0
  2940 ;;		On exit  : 0/0
  2941 ;;		Unchanged: 0/0
  2942 ;; Data sizes:     COMMON   BANK0   BANK1
  2943 ;;      Params:         0       0       0
  2944 ;;      Locals:         0       0       0
  2945 ;;      Temps:          0       0       0
  2946 ;;      Totals:         0       0       0
  2947 ;;Total ram usage:        0 bytes
  2948 ;; Hardware stack levels used:    1
  2949 ;; Hardware stack levels required when called:    3
  2950 ;; This function calls:
  2951 ;;		Nothing
  2952 ;; This function is called by:
  2953 ;;		_eventHandlerService
  2954 ;; This function uses a non-reentrant model
  2955 ;;
  2956                           
  2957                           
  2958                           ;psect for function _runS3_GreenFlashing
  2959  05C7                     _runS3_GreenFlashing:	
  2960                           
  2961                           ;incstack = 0
  2962                           ; Regs used in _runS3_GreenFlashing: []
  2963  05C7  0008               	return
  2964  05C8                     __end_of_runS3_GreenFlashing:	
  2965                           
  2966                           	psect	text19
  2967  05C8                     __ptext19:	
  2968 ;; *************** function _runS3_Error *****************
  2969 ;; Defined at:
  2970 ;;		line 336 in file "../source/eventhandler.c"
  2971 ;; Parameters:    Size  Location     Type
  2972 ;;		None
  2973 ;; Auto vars:     Size  Location     Type
  2974 ;;		None
  2975 ;; Return value:  Size  Location     Type
  2976 ;;                  1    wreg      void 
  2977 ;; Registers used:
  2978 ;;		None
  2979 ;; Tracked objects:
  2980 ;;		On entry : 0/0
  2981 ;;		On exit  : 0/0
  2982 ;;		Unchanged: 0/0
  2983 ;; Data sizes:     COMMON   BANK0   BANK1
  2984 ;;      Params:         0       0       0
  2985 ;;      Locals:         0       0       0
  2986 ;;      Temps:          0       0       0
  2987 ;;      Totals:         0       0       0
  2988 ;;Total ram usage:        0 bytes
  2989 ;; Hardware stack levels used:    1
  2990 ;; Hardware stack levels required when called:    3
  2991 ;; This function calls:
  2992 ;;		Nothing
  2993 ;; This function is called by:
  2994 ;;		_eventHandlerService
  2995 ;; This function uses a non-reentrant model
  2996 ;;
  2997                           
  2998                           
  2999                           ;psect for function _runS3_Error
  3000  05C8                     _runS3_Error:	
  3001                           
  3002                           ;incstack = 0
  3003                           ; Regs used in _runS3_Error: []
  3004  05C8  0008               	return
  3005  05C9                     __end_of_runS3_Error:	
  3006                           
  3007                           	psect	text20
  3008  05C9                     __ptext20:	
  3009 ;; *************** function _runS3_Timeout *****************
  3010 ;; Defined at:
  3011 ;;		line 341 in file "../source/eventhandler.c"
  3012 ;; Parameters:    Size  Location     Type
  3013 ;;		None
  3014 ;; Auto vars:     Size  Location     Type
  3015 ;;		None
  3016 ;; Return value:  Size  Location     Type
  3017 ;;                  1    wreg      void 
  3018 ;; Registers used:
  3019 ;;		None
  3020 ;; Tracked objects:
  3021 ;;		On entry : 0/0
  3022 ;;		On exit  : 0/0
  3023 ;;		Unchanged: 0/0
  3024 ;; Data sizes:     COMMON   BANK0   BANK1
  3025 ;;      Params:         0       0       0
  3026 ;;      Locals:         0       0       0
  3027 ;;      Temps:          0       0       0
  3028 ;;      Totals:         0       0       0
  3029 ;;Total ram usage:        0 bytes
  3030 ;; Hardware stack levels used:    1
  3031 ;; Hardware stack levels required when called:    3
  3032 ;; This function calls:
  3033 ;;		Nothing
  3034 ;; This function is called by:
  3035 ;;		_eventHandlerService
  3036 ;; This function uses a non-reentrant model
  3037 ;;
  3038                           
  3039                           
  3040                           ;psect for function _runS3_Timeout
  3041  05C9                     _runS3_Timeout:	
  3042                           
  3043                           ;incstack = 0
  3044                           ; Regs used in _runS3_Timeout: []
  3045  05C9  0008               	return
  3046  05CA                     __end_of_runS3_Timeout:	
  3047                           
  3048                           	psect	text21
  3049  05CA                     __ptext21:	
  3050 ;; *************** function _runS2_BeepReceived *****************
  3051 ;; Defined at:
  3052 ;;		line 331 in file "../source/eventhandler.c"
  3053 ;; Parameters:    Size  Location     Type
  3054 ;;		None
  3055 ;; Auto vars:     Size  Location     Type
  3056 ;;		None
  3057 ;; Return value:  Size  Location     Type
  3058 ;;                  1    wreg      void 
  3059 ;; Registers used:
  3060 ;;		None
  3061 ;; Tracked objects:
  3062 ;;		On entry : 0/0
  3063 ;;		On exit  : 0/0
  3064 ;;		Unchanged: 0/0
  3065 ;; Data sizes:     COMMON   BANK0   BANK1
  3066 ;;      Params:         0       0       0
  3067 ;;      Locals:         0       0       0
  3068 ;;      Temps:          0       0       0
  3069 ;;      Totals:         0       0       0
  3070 ;;Total ram usage:        0 bytes
  3071 ;; Hardware stack levels used:    1
  3072 ;; Hardware stack levels required when called:    3
  3073 ;; This function calls:
  3074 ;;		Nothing
  3075 ;; This function is called by:
  3076 ;;		_eventHandlerService
  3077 ;; This function uses a non-reentrant model
  3078 ;;
  3079                           
  3080                           
  3081                           ;psect for function _runS2_BeepReceived
  3082  05CA                     _runS2_BeepReceived:	
  3083                           
  3084                           ;incstack = 0
  3085                           ; Regs used in _runS2_BeepReceived: []
  3086  05CA  0008               	return
  3087  05CB                     __end_of_runS2_BeepReceived:	
  3088                           
  3089                           	psect	text22
  3090  05CB                     __ptext22:	
  3091 ;; *************** function _runS2_Error *****************
  3092 ;; Defined at:
  3093 ;;		line 321 in file "../source/eventhandler.c"
  3094 ;; Parameters:    Size  Location     Type
  3095 ;;		None
  3096 ;; Auto vars:     Size  Location     Type
  3097 ;;		None
  3098 ;; Return value:  Size  Location     Type
  3099 ;;                  1    wreg      void 
  3100 ;; Registers used:
  3101 ;;		None
  3102 ;; Tracked objects:
  3103 ;;		On entry : 0/0
  3104 ;;		On exit  : 0/0
  3105 ;;		Unchanged: 0/0
  3106 ;; Data sizes:     COMMON   BANK0   BANK1
  3107 ;;      Params:         0       0       0
  3108 ;;      Locals:         0       0       0
  3109 ;;      Temps:          0       0       0
  3110 ;;      Totals:         0       0       0
  3111 ;;Total ram usage:        0 bytes
  3112 ;; Hardware stack levels used:    1
  3113 ;; Hardware stack levels required when called:    3
  3114 ;; This function calls:
  3115 ;;		Nothing
  3116 ;; This function is called by:
  3117 ;;		_eventHandlerService
  3118 ;; This function uses a non-reentrant model
  3119 ;;
  3120                           
  3121                           
  3122                           ;psect for function _runS2_Error
  3123  05CB                     _runS2_Error:	
  3124                           
  3125                           ;incstack = 0
  3126                           ; Regs used in _runS2_Error: []
  3127  05CB  0008               	return
  3128  05CC                     __end_of_runS2_Error:	
  3129                           
  3130                           	psect	text23
  3131  05CC                     __ptext23:	
  3132 ;; *************** function _runS2_Timeout *****************
  3133 ;; Defined at:
  3134 ;;		line 326 in file "../source/eventhandler.c"
  3135 ;; Parameters:    Size  Location     Type
  3136 ;;		None
  3137 ;; Auto vars:     Size  Location     Type
  3138 ;;		None
  3139 ;; Return value:  Size  Location     Type
  3140 ;;                  1    wreg      void 
  3141 ;; Registers used:
  3142 ;;		None
  3143 ;; Tracked objects:
  3144 ;;		On entry : 0/0
  3145 ;;		On exit  : 0/0
  3146 ;;		Unchanged: 0/0
  3147 ;; Data sizes:     COMMON   BANK0   BANK1
  3148 ;;      Params:         0       0       0
  3149 ;;      Locals:         0       0       0
  3150 ;;      Temps:          0       0       0
  3151 ;;      Totals:         0       0       0
  3152 ;;Total ram usage:        0 bytes
  3153 ;; Hardware stack levels used:    1
  3154 ;; Hardware stack levels required when called:    3
  3155 ;; This function calls:
  3156 ;;		Nothing
  3157 ;; This function is called by:
  3158 ;;		_eventHandlerService
  3159 ;; This function uses a non-reentrant model
  3160 ;;
  3161                           
  3162                           
  3163                           ;psect for function _runS2_Timeout
  3164  05CC                     _runS2_Timeout:	
  3165                           
  3166                           ;incstack = 0
  3167                           ; Regs used in _runS2_Timeout: []
  3168  05CC  0008               	return
  3169  05CD                     __end_of_runS2_Timeout:	
  3170                           
  3171                           	psect	text24
  3172  05CD                     __ptext24:	
  3173 ;; *************** function _runS1_Error *****************
  3174 ;; Defined at:
  3175 ;;		line 306 in file "../source/eventhandler.c"
  3176 ;; Parameters:    Size  Location     Type
  3177 ;;		None
  3178 ;; Auto vars:     Size  Location     Type
  3179 ;;		None
  3180 ;; Return value:  Size  Location     Type
  3181 ;;                  1    wreg      void 
  3182 ;; Registers used:
  3183 ;;		None
  3184 ;; Tracked objects:
  3185 ;;		On entry : 0/0
  3186 ;;		On exit  : 0/0
  3187 ;;		Unchanged: 0/0
  3188 ;; Data sizes:     COMMON   BANK0   BANK1
  3189 ;;      Params:         0       0       0
  3190 ;;      Locals:         0       0       0
  3191 ;;      Temps:          0       0       0
  3192 ;;      Totals:         0       0       0
  3193 ;;Total ram usage:        0 bytes
  3194 ;; Hardware stack levels used:    1
  3195 ;; Hardware stack levels required when called:    3
  3196 ;; This function calls:
  3197 ;;		Nothing
  3198 ;; This function is called by:
  3199 ;;		_eventHandlerService
  3200 ;; This function uses a non-reentrant model
  3201 ;;
  3202                           
  3203                           
  3204                           ;psect for function _runS1_Error
  3205  05CD                     _runS1_Error:	
  3206                           
  3207                           ;incstack = 0
  3208                           ; Regs used in _runS1_Error: []
  3209  05CD  0008               	return
  3210  05CE                     __end_of_runS1_Error:	
  3211                           
  3212                           	psect	text25
  3213  059C                     __ptext25:	
  3214 ;; *************** function _runS1_Initialised *****************
  3215 ;; Defined at:
  3216 ;;		line 316 in file "../source/eventhandler.c"
  3217 ;; Parameters:    Size  Location     Type
  3218 ;;		None
  3219 ;; Auto vars:     Size  Location     Type
  3220 ;;		None
  3221 ;; Return value:  Size  Location     Type
  3222 ;;                  1    wreg      void 
  3223 ;; Registers used:
  3224 ;;		wreg, status,2, status,0, pclath, cstack
  3225 ;; Tracked objects:
  3226 ;;		On entry : 0/0
  3227 ;;		On exit  : 0/0
  3228 ;;		Unchanged: 0/0
  3229 ;; Data sizes:     COMMON   BANK0   BANK1
  3230 ;;      Params:         0       0       0
  3231 ;;      Locals:         0       0       0
  3232 ;;      Temps:          0       0       0
  3233 ;;      Totals:         0       0       0
  3234 ;;Total ram usage:        0 bytes
  3235 ;; Hardware stack levels used:    1
  3236 ;; Hardware stack levels required when called:    4
  3237 ;; This function calls:
  3238 ;;		_beepRepeatedly
  3239 ;; This function is called by:
  3240 ;;		_eventHandlerService
  3241 ;; This function uses a non-reentrant model
  3242 ;;
  3243                           
  3244                           
  3245                           ;psect for function _runS1_Initialised
  3246  059C                     _runS1_Initialised:	
  3247                           
  3248                           ;eventhandler.c: 318: beepRepeatedly ( 200, 5);
  3249                           
  3250                           ;incstack = 0
  3251                           ; Regs used in _runS1_Initialised: [wreg+status,2+status,0+pclath+cstack]
  3252  059C  30C8               	movlw	200
  3253  059D  0020               	movlb	0	; select bank0
  3254  059E  00C9               	movwf	beepRepeatedly@period
  3255  059F  3000               	movlw	0
  3256  05A0  00CA               	movwf	beepRepeatedly@period+1
  3257  05A1  3005               	movlw	5
  3258  05A2  00CB               	movwf	beepRepeatedly@n
  3259  05A3  3000               	movlw	0
  3260  05A4  00CC               	movwf	beepRepeatedly@n+1
  3261  05A5  2461               	fcall	_beepRepeatedly
  3262  05A6  0008               	return
  3263  05A7                     __end_of_runS1_Initialised:	
  3264                           
  3265                           	psect	text26
  3266  05CE                     __ptext26:	
  3267 ;; *************** function _runS1_Timeout *****************
  3268 ;; Defined at:
  3269 ;;		line 311 in file "../source/eventhandler.c"
  3270 ;; Parameters:    Size  Location     Type
  3271 ;;		None
  3272 ;; Auto vars:     Size  Location     Type
  3273 ;;		None
  3274 ;; Return value:  Size  Location     Type
  3275 ;;                  1    wreg      void 
  3276 ;; Registers used:
  3277 ;;		None
  3278 ;; Tracked objects:
  3279 ;;		On entry : 0/0
  3280 ;;		On exit  : 0/0
  3281 ;;		Unchanged: 0/0
  3282 ;; Data sizes:     COMMON   BANK0   BANK1
  3283 ;;      Params:         0       0       0
  3284 ;;      Locals:         0       0       0
  3285 ;;      Temps:          0       0       0
  3286 ;;      Totals:         0       0       0
  3287 ;;Total ram usage:        0 bytes
  3288 ;; Hardware stack levels used:    1
  3289 ;; Hardware stack levels required when called:    3
  3290 ;; This function calls:
  3291 ;;		Nothing
  3292 ;; This function is called by:
  3293 ;;		_eventHandlerService
  3294 ;; This function uses a non-reentrant model
  3295 ;;
  3296                           
  3297                           
  3298                           ;psect for function _runS1_Timeout
  3299  05CE                     _runS1_Timeout:	
  3300                           
  3301                           ;incstack = 0
  3302                           ; Regs used in _runS1_Timeout: []
  3303  05CE  0008               	return
  3304  05CF                     __end_of_runS1_Timeout:	
  3305                           
  3306                           	psect	text27
  3307  05CF                     __ptext27:	
  3308 ;; *************** function _run_NoAction *****************
  3309 ;; Defined at:
  3310 ;;		line 301 in file "../source/eventhandler.c"
  3311 ;; Parameters:    Size  Location     Type
  3312 ;;		None
  3313 ;; Auto vars:     Size  Location     Type
  3314 ;;		None
  3315 ;; Return value:  Size  Location     Type
  3316 ;;                  1    wreg      void 
  3317 ;; Registers used:
  3318 ;;		None
  3319 ;; Tracked objects:
  3320 ;;		On entry : 0/0
  3321 ;;		On exit  : 0/0
  3322 ;;		Unchanged: 0/0
  3323 ;; Data sizes:     COMMON   BANK0   BANK1
  3324 ;;      Params:         0       0       0
  3325 ;;      Locals:         0       0       0
  3326 ;;      Temps:          0       0       0
  3327 ;;      Totals:         0       0       0
  3328 ;;Total ram usage:        0 bytes
  3329 ;; Hardware stack levels used:    1
  3330 ;; Hardware stack levels required when called:    3
  3331 ;; This function calls:
  3332 ;;		Nothing
  3333 ;; This function is called by:
  3334 ;;		_eventHandlerService
  3335 ;; This function uses a non-reentrant model
  3336 ;;
  3337                           
  3338                           
  3339                           ;psect for function _run_NoAction
  3340  05CF                     _run_NoAction:	
  3341                           
  3342                           ;incstack = 0
  3343                           ; Regs used in _run_NoAction: []
  3344  05CF  0008               	return
  3345  05D0                     __end_of_run_NoAction:	
  3346                           
  3347                           	psect	text28
  3348  0432                     __ptext28:	
  3349 ;; *************** function _initS8_bothLow *****************
  3350 ;; Defined at:
  3351 ;;		line 210 in file "../source/eventhandler.c"
  3352 ;; Parameters:    Size  Location     Type
  3353 ;;		None
  3354 ;; Auto vars:     Size  Location     Type
  3355 ;;		None
  3356 ;; Return value:  Size  Location     Type
  3357 ;;                  1    wreg      void 
  3358 ;; Registers used:
  3359 ;;		wreg, fsr1l, fsr1h, status,2, status,0, pclath, cstack
  3360 ;; Tracked objects:
  3361 ;;		On entry : 0/0
  3362 ;;		On exit  : 0/0
  3363 ;;		Unchanged: 0/0
  3364 ;; Data sizes:     COMMON   BANK0   BANK1
  3365 ;;      Params:         0       0       0
  3366 ;;      Locals:         0       0       0
  3367 ;;      Temps:          0       1       0
  3368 ;;      Totals:         0       1       0
  3369 ;;Total ram usage:        1 bytes
  3370 ;; Hardware stack levels used:    1
  3371 ;; Hardware stack levels required when called:    4
  3372 ;; This function calls:
  3373 ;;		_beepRepeatedly
  3374 ;;		_timerLock
  3375 ;; This function is called by:
  3376 ;;		_eventHandlerService
  3377 ;; This function uses a non-reentrant model
  3378 ;;
  3379                           
  3380                           
  3381                           ;psect for function _initS8_bothLow
  3382  0432                     _initS8_bothLow:	
  3383                           
  3384                           ;eventhandler.c: 212: timerLock( initSMTimer );
  3385                           
  3386                           ;incstack = 0
  3387                           ; Regs used in _initS8_bothLow: [wreg+fsr1l+fsr1h+status,2+status,0+pclath+cstack]
  3388  0432  0020               	movlb	0	; select bank0
  3389  0433  083B               	movf	_initSMTimer,w
  3390  0434  24E4               	fcall	_timerLock
  3391                           
  3392                           ;eventhandler.c: 213: initState = initialised;
  3393  0435  3008               	movlw	8
  3394  0436  0020               	movlb	0	; select bank0
  3395  0437  00CA               	movwf	??_initS8_bothLow
  3396  0438  084A               	movf	??_initS8_bothLow,w
  3397  0439  00C8               	movwf	_initState
  3398                           
  3399                           ;eventhandler.c: 214: chargerInitialised.eventFlag = !0;
  3400  043A  01A4               	clrf	_chargerInitialised
  3401  043B  0AA4               	incf	_chargerInitialised,f
  3402                           
  3403                           ;eventhandler.c: 215: chargerInitialised.eventTime = systick;
  3404  043C  087A               	movf	_systick+1,w
  3405  043D  00A6               	movwf	_chargerInitialised+2
  3406  043E  0879               	movf	_systick,w
  3407  043F  00A5               	movwf	_chargerInitialised+1
  3408                           
  3409                           ;eventhandler.c: 216: beepRepeatedly(500, 5);
  3410  0440  30F4               	movlw	244
  3411  0441  00C9               	movwf	beepRepeatedly@period
  3412  0442  3001               	movlw	1
  3413  0443  00CA               	movwf	beepRepeatedly@period+1
  3414  0444  3005               	movlw	5
  3415  0445  00CB               	movwf	beepRepeatedly@n
  3416  0446  3000               	movlw	0
  3417  0447  00CC               	movwf	beepRepeatedly@n+1
  3418  0448  2461               	fcall	_beepRepeatedly
  3419  0449  0008               	return
  3420  044A                     __end_of_initS8_bothLow:	
  3421                           
  3422                           	psect	text29
  3423  052C                     __ptext29:	
  3424 ;; *************** function _initS7_bothHigh *****************
  3425 ;; Defined at:
  3426 ;;		line 204 in file "../source/eventhandler.c"
  3427 ;; Parameters:    Size  Location     Type
  3428 ;;		None
  3429 ;; Auto vars:     Size  Location     Type
  3430 ;;		None
  3431 ;; Return value:  Size  Location     Type
  3432 ;;                  1    wreg      void 
  3433 ;; Registers used:
  3434 ;;		wreg, fsr1l, fsr1h, status,2, status,0, pclath, cstack
  3435 ;; Tracked objects:
  3436 ;;		On entry : 0/0
  3437 ;;		On exit  : 0/0
  3438 ;;		Unchanged: 0/0
  3439 ;; Data sizes:     COMMON   BANK0   BANK1
  3440 ;;      Params:         0       0       0
  3441 ;;      Locals:         0       0       0
  3442 ;;      Temps:          0       1       0
  3443 ;;      Totals:         0       1       0
  3444 ;;Total ram usage:        1 bytes
  3445 ;; Hardware stack levels used:    1
  3446 ;; Hardware stack levels required when called:    4
  3447 ;; This function calls:
  3448 ;;		_timerSet
  3449 ;; This function is called by:
  3450 ;;		_eventHandlerService
  3451 ;; This function uses a non-reentrant model
  3452 ;;
  3453                           
  3454                           
  3455                           ;psect for function _initS7_bothHigh
  3456  052C                     _initS7_bothHigh:	
  3457                           
  3458                           ;eventhandler.c: 206: timerSet( initSMTimer, 2000 * 1 );
  3459                           
  3460                           ;incstack = 0
  3461                           ; Regs used in _initS7_bothHigh: [wreg+fsr1l+fsr1h+status,2+status,0+pclath+cstack]
  3462  052C  30D0               	movlw	208
  3463  052D  0020               	movlb	0	; select bank0
  3464  052E  00C9               	movwf	timerSet@duration
  3465  052F  3007               	movlw	7
  3466  0530  00CA               	movwf	timerSet@duration+1
  3467  0531  083B               	movf	_initSMTimer,w
  3468  0532  24F3               	fcall	_timerSet
  3469                           
  3470                           ;eventhandler.c: 207: initState = initS8;
  3471  0533  3007               	movlw	7
  3472  0534  0020               	movlb	0	; select bank0
  3473  0535  00CC               	movwf	??_initS7_bothHigh
  3474  0536  084C               	movf	??_initS7_bothHigh,w
  3475  0537  00C8               	movwf	_initState
  3476  0538  0008               	return
  3477  0539                     __end_of_initS7_bothHigh:	
  3478                           
  3479                           	psect	text30
  3480  0539                     __ptext30:	
  3481 ;; *************** function _initS6_redLow *****************
  3482 ;; Defined at:
  3483 ;;		line 198 in file "../source/eventhandler.c"
  3484 ;; Parameters:    Size  Location     Type
  3485 ;;		None
  3486 ;; Auto vars:     Size  Location     Type
  3487 ;;		None
  3488 ;; Return value:  Size  Location     Type
  3489 ;;                  1    wreg      void 
  3490 ;; Registers used:
  3491 ;;		wreg, fsr1l, fsr1h, status,2, status,0, pclath, cstack
  3492 ;; Tracked objects:
  3493 ;;		On entry : 0/0
  3494 ;;		On exit  : 0/0
  3495 ;;		Unchanged: 0/0
  3496 ;; Data sizes:     COMMON   BANK0   BANK1
  3497 ;;      Params:         0       0       0
  3498 ;;      Locals:         0       0       0
  3499 ;;      Temps:          0       1       0
  3500 ;;      Totals:         0       1       0
  3501 ;;Total ram usage:        1 bytes
  3502 ;; Hardware stack levels used:    1
  3503 ;; Hardware stack levels required when called:    4
  3504 ;; This function calls:
  3505 ;;		_timerSet
  3506 ;; This function is called by:
  3507 ;;		_eventHandlerService
  3508 ;; This function uses a non-reentrant model
  3509 ;;
  3510                           
  3511                           
  3512                           ;psect for function _initS6_redLow
  3513  0539                     _initS6_redLow:	
  3514                           
  3515                           ;eventhandler.c: 200: timerSet( initSMTimer, 2000 * 1 );
  3516                           
  3517                           ;incstack = 0
  3518                           ; Regs used in _initS6_redLow: [wreg+fsr1l+fsr1h+status,2+status,0+pclath+cstack]
  3519  0539  30D0               	movlw	208
  3520  053A  0020               	movlb	0	; select bank0
  3521  053B  00C9               	movwf	timerSet@duration
  3522  053C  3007               	movlw	7
  3523  053D  00CA               	movwf	timerSet@duration+1
  3524  053E  083B               	movf	_initSMTimer,w
  3525  053F  24F3               	fcall	_timerSet
  3526                           
  3527                           ;eventhandler.c: 201: initState = initS7;
  3528  0540  3006               	movlw	6
  3529  0541  0020               	movlb	0	; select bank0
  3530  0542  00CC               	movwf	??_initS6_redLow
  3531  0543  084C               	movf	??_initS6_redLow,w
  3532  0544  00C8               	movwf	_initState
  3533  0545  0008               	return
  3534  0546                     __end_of_initS6_redLow:	
  3535                           
  3536                           	psect	text31
  3537  0546                     __ptext31:	
  3538 ;; *************** function _initS5_redHigh *****************
  3539 ;; Defined at:
  3540 ;;		line 192 in file "../source/eventhandler.c"
  3541 ;; Parameters:    Size  Location     Type
  3542 ;;		None
  3543 ;; Auto vars:     Size  Location     Type
  3544 ;;		None
  3545 ;; Return value:  Size  Location     Type
  3546 ;;                  1    wreg      void 
  3547 ;; Registers used:
  3548 ;;		wreg, fsr1l, fsr1h, status,2, status,0, pclath, cstack
  3549 ;; Tracked objects:
  3550 ;;		On entry : 0/0
  3551 ;;		On exit  : 0/0
  3552 ;;		Unchanged: 0/0
  3553 ;; Data sizes:     COMMON   BANK0   BANK1
  3554 ;;      Params:         0       0       0
  3555 ;;      Locals:         0       0       0
  3556 ;;      Temps:          0       1       0
  3557 ;;      Totals:         0       1       0
  3558 ;;Total ram usage:        1 bytes
  3559 ;; Hardware stack levels used:    1
  3560 ;; Hardware stack levels required when called:    4
  3561 ;; This function calls:
  3562 ;;		_timerSet
  3563 ;; This function is called by:
  3564 ;;		_eventHandlerService
  3565 ;; This function uses a non-reentrant model
  3566 ;;
  3567                           
  3568                           
  3569                           ;psect for function _initS5_redHigh
  3570  0546                     _initS5_redHigh:	
  3571                           
  3572                           ;eventhandler.c: 194: timerSet( initSMTimer, 2000 * 1 );
  3573                           
  3574                           ;incstack = 0
  3575                           ; Regs used in _initS5_redHigh: [wreg+fsr1l+fsr1h+status,2+status,0+pclath+cstack]
  3576  0546  30D0               	movlw	208
  3577  0547  0020               	movlb	0	; select bank0
  3578  0548  00C9               	movwf	timerSet@duration
  3579  0549  3007               	movlw	7
  3580  054A  00CA               	movwf	timerSet@duration+1
  3581  054B  083B               	movf	_initSMTimer,w
  3582  054C  24F3               	fcall	_timerSet
  3583                           
  3584                           ;eventhandler.c: 195: initState = initS6;
  3585  054D  3005               	movlw	5
  3586  054E  0020               	movlb	0	; select bank0
  3587  054F  00CC               	movwf	??_initS5_redHigh
  3588  0550  084C               	movf	??_initS5_redHigh,w
  3589  0551  00C8               	movwf	_initState
  3590  0552  0008               	return
  3591  0553                     __end_of_initS5_redHigh:	
  3592                           
  3593                           	psect	text32
  3594  0553                     __ptext32:	
  3595 ;; *************** function _initS4_greenLow *****************
  3596 ;; Defined at:
  3597 ;;		line 186 in file "../source/eventhandler.c"
  3598 ;; Parameters:    Size  Location     Type
  3599 ;;		None
  3600 ;; Auto vars:     Size  Location     Type
  3601 ;;		None
  3602 ;; Return value:  Size  Location     Type
  3603 ;;                  1    wreg      void 
  3604 ;; Registers used:
  3605 ;;		wreg, fsr1l, fsr1h, status,2, status,0, pclath, cstack
  3606 ;; Tracked objects:
  3607 ;;		On entry : 0/0
  3608 ;;		On exit  : 0/0
  3609 ;;		Unchanged: 0/0
  3610 ;; Data sizes:     COMMON   BANK0   BANK1
  3611 ;;      Params:         0       0       0
  3612 ;;      Locals:         0       0       0
  3613 ;;      Temps:          0       1       0
  3614 ;;      Totals:         0       1       0
  3615 ;;Total ram usage:        1 bytes
  3616 ;; Hardware stack levels used:    1
  3617 ;; Hardware stack levels required when called:    4
  3618 ;; This function calls:
  3619 ;;		_timerSet
  3620 ;; This function is called by:
  3621 ;;		_eventHandlerService
  3622 ;; This function uses a non-reentrant model
  3623 ;;
  3624                           
  3625                           
  3626                           ;psect for function _initS4_greenLow
  3627  0553                     _initS4_greenLow:	
  3628                           
  3629                           ;eventhandler.c: 188: timerSet( initSMTimer, 2000 * 1 );
  3630                           
  3631                           ;incstack = 0
  3632                           ; Regs used in _initS4_greenLow: [wreg+fsr1l+fsr1h+status,2+status,0+pclath+cstack]
  3633  0553  30D0               	movlw	208
  3634  0554  0020               	movlb	0	; select bank0
  3635  0555  00C9               	movwf	timerSet@duration
  3636  0556  3007               	movlw	7
  3637  0557  00CA               	movwf	timerSet@duration+1
  3638  0558  083B               	movf	_initSMTimer,w
  3639  0559  24F3               	fcall	_timerSet
  3640                           
  3641                           ;eventhandler.c: 189: initState = initS5;
  3642  055A  3004               	movlw	4
  3643  055B  0020               	movlb	0	; select bank0
  3644  055C  00CC               	movwf	??_initS4_greenLow
  3645  055D  084C               	movf	??_initS4_greenLow,w
  3646  055E  00C8               	movwf	_initState
  3647  055F  0008               	return
  3648  0560                     __end_of_initS4_greenLow:	
  3649                           
  3650                           	psect	text33
  3651  0560                     __ptext33:	
  3652 ;; *************** function _initS3_greenHigh *****************
  3653 ;; Defined at:
  3654 ;;		line 180 in file "../source/eventhandler.c"
  3655 ;; Parameters:    Size  Location     Type
  3656 ;;		None
  3657 ;; Auto vars:     Size  Location     Type
  3658 ;;		None
  3659 ;; Return value:  Size  Location     Type
  3660 ;;                  1    wreg      void 
  3661 ;; Registers used:
  3662 ;;		wreg, fsr1l, fsr1h, status,2, status,0, pclath, cstack
  3663 ;; Tracked objects:
  3664 ;;		On entry : 0/0
  3665 ;;		On exit  : 0/0
  3666 ;;		Unchanged: 0/0
  3667 ;; Data sizes:     COMMON   BANK0   BANK1
  3668 ;;      Params:         0       0       0
  3669 ;;      Locals:         0       0       0
  3670 ;;      Temps:          0       1       0
  3671 ;;      Totals:         0       1       0
  3672 ;;Total ram usage:        1 bytes
  3673 ;; Hardware stack levels used:    1
  3674 ;; Hardware stack levels required when called:    4
  3675 ;; This function calls:
  3676 ;;		_timerSet
  3677 ;; This function is called by:
  3678 ;;		_eventHandlerService
  3679 ;; This function uses a non-reentrant model
  3680 ;;
  3681                           
  3682                           
  3683                           ;psect for function _initS3_greenHigh
  3684  0560                     _initS3_greenHigh:	
  3685                           
  3686                           ;eventhandler.c: 182: timerSet( initSMTimer, 2000 * 1 );
  3687                           
  3688                           ;incstack = 0
  3689                           ; Regs used in _initS3_greenHigh: [wreg+fsr1l+fsr1h+status,2+status,0+pclath+cstack]
  3690  0560  30D0               	movlw	208
  3691  0561  0020               	movlb	0	; select bank0
  3692  0562  00C9               	movwf	timerSet@duration
  3693  0563  3007               	movlw	7
  3694  0564  00CA               	movwf	timerSet@duration+1
  3695  0565  083B               	movf	_initSMTimer,w
  3696  0566  24F3               	fcall	_timerSet
  3697                           
  3698                           ;eventhandler.c: 183: initState = initS4;
  3699  0567  3003               	movlw	3
  3700  0568  0020               	movlb	0	; select bank0
  3701  0569  00CC               	movwf	??_initS3_greenHigh
  3702  056A  084C               	movf	??_initS3_greenHigh,w
  3703  056B  00C8               	movwf	_initState
  3704  056C  0008               	return
  3705  056D                     __end_of_initS3_greenHigh:	
  3706                           
  3707                           	psect	text34
  3708  048F                     __ptext34:	
  3709 ;; *************** function _initS2_Timeout *****************
  3710 ;; Defined at:
  3711 ;;		line 168 in file "../source/eventhandler.c"
  3712 ;; Parameters:    Size  Location     Type
  3713 ;;		None
  3714 ;; Auto vars:     Size  Location     Type
  3715 ;;		None
  3716 ;; Return value:  Size  Location     Type
  3717 ;;                  1    wreg      void 
  3718 ;; Registers used:
  3719 ;;		wreg, fsr1l, fsr1h, status,2, status,0, pclath, cstack
  3720 ;; Tracked objects:
  3721 ;;		On entry : 0/0
  3722 ;;		On exit  : 0/0
  3723 ;;		Unchanged: 0/0
  3724 ;; Data sizes:     COMMON   BANK0   BANK1
  3725 ;;      Params:         0       0       0
  3726 ;;      Locals:         0       0       0
  3727 ;;      Temps:          0       1       0
  3728 ;;      Totals:         0       1       0
  3729 ;;Total ram usage:        1 bytes
  3730 ;; Hardware stack levels used:    1
  3731 ;; Hardware stack levels required when called:    4
  3732 ;; This function calls:
  3733 ;;		_longTimerSet
  3734 ;;		_timerLock
  3735 ;; This function is called by:
  3736 ;;		_eventHandlerService
  3737 ;; This function uses a non-reentrant model
  3738 ;;
  3739                           
  3740                           
  3741                           ;psect for function _initS2_Timeout
  3742  048F                     _initS2_Timeout:	
  3743                           
  3744                           ;eventhandler.c: 175: timerLock( initSMTimer );
  3745                           
  3746                           ;incstack = 0
  3747                           ; Regs used in _initS2_Timeout: [wreg+fsr1l+fsr1h+status,2+status,0+pclath+cstack]
  3748  048F  0020               	movlb	0	; select bank0
  3749  0490  083B               	movf	_initSMTimer,w
  3750  0491  24E4               	fcall	_timerLock
  3751                           
  3752                           ;eventhandler.c: 176: longTimerSet( minuteTimer, (DWORD) 10 * 60 * 1000);
  3753  0492  3000               	movlw	0
  3754  0493  0020               	movlb	0	; select bank0
  3755  0494  00CC               	movwf	longTimerSet@duration+3
  3756  0495  3009               	movlw	9
  3757  0496  00CB               	movwf	longTimerSet@duration+2
  3758  0497  3027               	movlw	39
  3759  0498  00CA               	movwf	longTimerSet@duration+1
  3760  0499  30C0               	movlw	192
  3761  049A  00C9               	movwf	longTimerSet@duration
  3762  049B  0837               	movf	_minuteTimer,w
  3763  049C  23E4               	fcall	_longTimerSet
  3764                           
  3765                           ;eventhandler.c: 177: initState = initialised;
  3766  049D  3008               	movlw	8
  3767  049E  0020               	movlb	0	; select bank0
  3768  049F  00CA               	movwf	??_initS2_Timeout
  3769  04A0  084A               	movf	??_initS2_Timeout,w
  3770  04A1  00C8               	movwf	_initState
  3771  04A2  0008               	return
  3772  04A3                     __end_of_initS2_Timeout:	
  3773                           
  3774                           	psect	text35
  3775  056D                     __ptext35:	
  3776 ;; *************** function _initS1_Timeout *****************
  3777 ;; Defined at:
  3778 ;;		line 161 in file "../source/eventhandler.c"
  3779 ;; Parameters:    Size  Location     Type
  3780 ;;		None
  3781 ;; Auto vars:     Size  Location     Type
  3782 ;;		None
  3783 ;; Return value:  Size  Location     Type
  3784 ;;                  1    wreg      void 
  3785 ;; Registers used:
  3786 ;;		wreg, fsr1l, fsr1h, status,2, status,0, pclath, cstack
  3787 ;; Tracked objects:
  3788 ;;		On entry : 0/0
  3789 ;;		On exit  : 0/0
  3790 ;;		Unchanged: 0/0
  3791 ;; Data sizes:     COMMON   BANK0   BANK1
  3792 ;;      Params:         0       0       0
  3793 ;;      Locals:         0       0       0
  3794 ;;      Temps:          0       0       0
  3795 ;;      Totals:         0       0       0
  3796 ;;Total ram usage:        0 bytes
  3797 ;; Hardware stack levels used:    1
  3798 ;; Hardware stack levels required when called:    4
  3799 ;; This function calls:
  3800 ;;		_timerSet
  3801 ;; This function is called by:
  3802 ;;		_eventHandlerService
  3803 ;; This function uses a non-reentrant model
  3804 ;;
  3805                           
  3806                           
  3807                           ;psect for function _initS1_Timeout
  3808  056D                     _initS1_Timeout:	
  3809                           
  3810                           ;eventhandler.c: 163: timerSet( initSMTimer, 2000 * 1 );
  3811                           
  3812                           ;incstack = 0
  3813                           ; Regs used in _initS1_Timeout: [wreg+fsr1l+fsr1h+status,2+status,0+pclath+cstack]
  3814  056D  30D0               	movlw	208
  3815  056E  0020               	movlb	0	; select bank0
  3816  056F  00C9               	movwf	timerSet@duration
  3817  0570  3007               	movlw	7
  3818  0571  00CA               	movwf	timerSet@duration+1
  3819  0572  083B               	movf	_initSMTimer,w
  3820  0573  24F3               	fcall	_timerSet
  3821                           
  3822                           ;eventhandler.c: 164: LATAbits.LATA0 = 0;
  3823  0574  0022               	movlb	2	; select bank2
  3824  0575  100C               	bcf	12,0	;volatile
  3825                           
  3826                           ;eventhandler.c: 165: initState = initS2;
  3827  0576  0020               	movlb	0	; select bank0
  3828  0577  01C8               	clrf	_initState
  3829  0578  0AC8               	incf	_initState,f
  3830  0579  0008               	return
  3831  057A                     __end_of_initS1_Timeout:	
  3832                           
  3833                           	psect	text36
  3834  05D0                     __ptext36:	
  3835 ;; *************** function _init_NoAction *****************
  3836 ;; Defined at:
  3837 ;;		line 144 in file "../source/eventhandler.c"
  3838 ;; Parameters:    Size  Location     Type
  3839 ;;		None
  3840 ;; Auto vars:     Size  Location     Type
  3841 ;;		None
  3842 ;; Return value:  Size  Location     Type
  3843 ;;                  1    wreg      void 
  3844 ;; Registers used:
  3845 ;;		None
  3846 ;; Tracked objects:
  3847 ;;		On entry : 0/0
  3848 ;;		On exit  : 0/0
  3849 ;;		Unchanged: 0/0
  3850 ;; Data sizes:     COMMON   BANK0   BANK1
  3851 ;;      Params:         0       0       0
  3852 ;;      Locals:         0       0       0
  3853 ;;      Temps:          0       0       0
  3854 ;;      Totals:         0       0       0
  3855 ;;Total ram usage:        0 bytes
  3856 ;; Hardware stack levels used:    1
  3857 ;; Hardware stack levels required when called:    3
  3858 ;; This function calls:
  3859 ;;		Nothing
  3860 ;; This function is called by:
  3861 ;;		_eventHandlerService
  3862 ;; This function uses a non-reentrant model
  3863 ;;
  3864                           
  3865                           
  3866                           ;psect for function _init_NoAction
  3867  05D0                     _init_NoAction:	
  3868                           
  3869                           ;incstack = 0
  3870                           ; Regs used in _init_NoAction: []
  3871  05D0  0008               	return
  3872  05D1                     __end_of_init_NoAction:	
  3873                           
  3874                           	psect	text37
  3875  04B5                     __ptext37:	
  3876 ;; *************** function _init_Restart *****************
  3877 ;; Defined at:
  3878 ;;		line 149 in file "../source/eventhandler.c"
  3879 ;; Parameters:    Size  Location     Type
  3880 ;;		None
  3881 ;; Auto vars:     Size  Location     Type
  3882 ;;		None
  3883 ;; Return value:  Size  Location     Type
  3884 ;;                  1    wreg      void 
  3885 ;; Registers used:
  3886 ;;		wreg, fsr1l, fsr1h, status,2, status,0, pclath, cstack
  3887 ;; Tracked objects:
  3888 ;;		On entry : 0/0
  3889 ;;		On exit  : 0/0
  3890 ;;		Unchanged: 0/0
  3891 ;; Data sizes:     COMMON   BANK0   BANK1
  3892 ;;      Params:         0       0       0
  3893 ;;      Locals:         0       0       0
  3894 ;;      Temps:          0       0       0
  3895 ;;      Totals:         0       0       0
  3896 ;;Total ram usage:        0 bytes
  3897 ;; Hardware stack levels used:    1
  3898 ;; Hardware stack levels required when called:    4
  3899 ;; This function calls:
  3900 ;;		_timerSet
  3901 ;; This function is called by:
  3902 ;;		_eventHandlerInit
  3903 ;;		_eventHandlerService
  3904 ;; This function uses a non-reentrant model
  3905 ;;
  3906                           
  3907                           
  3908                           ;psect for function _init_Restart
  3909  04B5                     _init_Restart:	
  3910                           
  3911                           ;eventhandler.c: 151: timerSet( initSMTimer, 2000 * 1 );
  3912                           
  3913                           ;incstack = 0
  3914                           ; Regs used in _init_Restart: [wreg+fsr1l+fsr1h+status,2+status,0+pclath+cstack]
  3915  04B5  30D0               	movlw	208
  3916  04B6  0020               	movlb	0	; select bank0
  3917  04B7  00C9               	movwf	timerSet@duration
  3918  04B8  3007               	movlw	7
  3919  04B9  00CA               	movwf	timerSet@duration+1
  3920  04BA  083B               	movf	_initSMTimer,w
  3921  04BB  24F3               	fcall	_timerSet
  3922                           
  3923                           ;eventhandler.c: 152: LATAbits.LATA0 = 1;
  3924  04BC  0022               	movlb	2	; select bank2
  3925  04BD  140C               	bsf	12,0	;volatile
  3926                           
  3927                           ;eventhandler.c: 153: initState = initS1;
  3928  04BE  0020               	movlb	0	; select bank0
  3929  04BF  01C8               	clrf	_initState
  3930                           
  3931                           ;eventhandler.c: 154: greenWentHigh.eventFlag = 0;
  3932  04C0  01B0               	clrf	_greenWentHigh
  3933                           
  3934                           ;eventhandler.c: 155: greenWentLow.eventFlag = 0;
  3935  04C1  01AD               	clrf	_greenWentLow
  3936                           
  3937                           ;eventhandler.c: 156: redWentHigh.eventFlag = 0;
  3938  04C2  01AA               	clrf	_redWentHigh
  3939                           
  3940                           ;eventhandler.c: 157: redWentLow.eventFlag = 0;
  3941  04C3  01A7               	clrf	_redWentLow
  3942                           
  3943                           ;eventhandler.c: 158: runState = runS1;
  3944  04C4  01C6               	clrf	_runState
  3945  04C5  0008               	return
  3946  04C6                     __end_of_init_Restart:	
  3947                           
  3948                           	psect	text38
  3949  0461                     __ptext38:	
  3950 ;; *************** function _beepRepeatedly *****************
  3951 ;; Defined at:
  3952 ;;		line 82 in file "../source/beeper.c"
  3953 ;; Parameters:    Size  Location     Type
  3954 ;;  period          2    0[BANK0 ] int 
  3955 ;;  n               2    2[BANK0 ] int 
  3956 ;; Auto vars:     Size  Location     Type
  3957 ;;		None
  3958 ;; Return value:  Size  Location     Type
  3959 ;;                  1    wreg      void 
  3960 ;; Registers used:
  3961 ;;		wreg, status,2, status,0
  3962 ;; Tracked objects:
  3963 ;;		On entry : 0/0
  3964 ;;		On exit  : 0/0
  3965 ;;		Unchanged: 0/0
  3966 ;; Data sizes:     COMMON   BANK0   BANK1
  3967 ;;      Params:         0       4       0
  3968 ;;      Locals:         0       0       0
  3969 ;;      Temps:          0       0       0
  3970 ;;      Totals:         0       4       0
  3971 ;;Total ram usage:        4 bytes
  3972 ;; Hardware stack levels used:    1
  3973 ;; Hardware stack levels required when called:    3
  3974 ;; This function calls:
  3975 ;;		Nothing
  3976 ;; This function is called by:
  3977 ;;		_initS8_bothLow
  3978 ;;		_runS1_Initialised
  3979 ;;		_initialise
  3980 ;; This function uses a non-reentrant model
  3981 ;;
  3982                           
  3983                           
  3984                           ;psect for function _beepRepeatedly
  3985  0461                     _beepRepeatedly:	
  3986                           
  3987                           ;beeper.c: 84: repeatedBeeping = !0;
  3988                           
  3989                           ;incstack = 0
  3990                           ; Regs used in _beepRepeatedly: [wreg+status,2+status,0]
  3991  0461  0020               	movlb	0	; select bank0
  3992  0462  01BE               	clrf	_repeatedBeeping
  3993  0463  0ABE               	incf	_repeatedBeeping,f
  3994                           
  3995                           ;beeper.c: 85: if (n != -1)
  3996  0464  0A4B               	incf	beepRepeatedly@n,w
  3997  0465  1903               	btfsc	3,2
  3998  0466  0A4C               	incf	beepRepeatedly@n+1,w
  3999  0467  1903               	btfsc	3,2
  4000  0468  2C6D               	goto	l2202
  4001                           
  4002                           ;beeper.c: 86: nBeeps = n * 2;
  4003  0469  354B               	lslf	beepRepeatedly@n,w
  4004  046A  00B3               	movwf	_nBeeps
  4005  046B  0D4C               	rlf	beepRepeatedly@n+1,w
  4006  046C  2C70               	goto	L1
  4007  046D                     l2202:	
  4008                           
  4009                           ;beeper.c: 87: else
  4010                           ;beeper.c: 88: nBeeps = -1;
  4011  046D  30FF               	movlw	255
  4012  046E  00B3               	movwf	_nBeeps
  4013  046F  30FF               	movlw	255
  4014  0470                     L1:	
  4015  0470  00B4               	movwf	_nBeeps+1
  4016                           
  4017                           ;beeper.c: 89: beeperOn = 0;
  4018  0471  01BD               	clrf	_beeperOn
  4019                           
  4020                           ;beeper.c: 90: beepRate = period;
  4021  0472  084A               	movf	beepRepeatedly@period+1,w
  4022  0473  00DC               	movwf	_beepRate+1
  4023  0474  0849               	movf	beepRepeatedly@period,w
  4024  0475  00DB               	movwf	_beepRate
  4025                           
  4026                           ;beeper.c: 91: beeperToggle = 0;
  4027  0476  01BF               	clrf	_beeperToggle
  4028  0477  0008               	return
  4029  0478                     __end_of_beepRepeatedly:	
  4030                           
  4031                           	psect	text39
  4032  03E4                     __ptext39:	
  4033 ;; *************** function _longTimerSet *****************
  4034 ;; Defined at:
  4035 ;;		line 208 in file "../source/timer.c"
  4036 ;; Parameters:    Size  Location     Type
  4037 ;;  index           1    wreg     unsigned char 
  4038 ;;  duration        4    0[BANK0 ] unsigned long 
  4039 ;; Auto vars:     Size  Location     Type
  4040 ;;  index           1    5[BANK0 ] unsigned char 
  4041 ;; Return value:  Size  Location     Type
  4042 ;;                  1    wreg      void 
  4043 ;; Registers used:
  4044 ;;		wreg, fsr1l, fsr1h, status,2, status,0
  4045 ;; Tracked objects:
  4046 ;;		On entry : 0/0
  4047 ;;		On exit  : 0/0
  4048 ;;		Unchanged: 0/0
  4049 ;; Data sizes:     COMMON   BANK0   BANK1
  4050 ;;      Params:         0       4       0
  4051 ;;      Locals:         0       1       0
  4052 ;;      Temps:          0       1       0
  4053 ;;      Totals:         0       6       0
  4054 ;;Total ram usage:        6 bytes
  4055 ;; Hardware stack levels used:    1
  4056 ;; Hardware stack levels required when called:    3
  4057 ;; This function calls:
  4058 ;;		Nothing
  4059 ;; This function is called by:
  4060 ;;		_initS2_Timeout
  4061 ;; This function uses a non-reentrant model
  4062 ;;
  4063                           
  4064                           
  4065                           ;psect for function _longTimerSet
  4066  03E4                     _longTimerSet:	
  4067                           
  4068                           ;incstack = 0
  4069                           ; Regs used in _longTimerSet: [wreg+fsr1l+fsr1h+status,2+status,0]
  4070                           ;longTimerSet@index stored from wreg
  4071  03E4  0020               	movlb	0	; select bank0
  4072  03E5  00CE               	movwf	longTimerSet@index
  4073                           
  4074                           ;timer.c: 210: if ( index < numLongTimers )
  4075  03E6  087B               	movf	_numLongTimers,w
  4076  03E7  024E               	subwf	longTimerSet@index,w
  4077  03E8  1803               	skipnc
  4078  03E9  0008               	return
  4079                           
  4080                           ;timer.c: 211: {
  4081                           ;timer.c: 212: longTimers[index] = duration;
  4082  03EA  084E               	movf	longTimerSet@index,w
  4083  03EB  00CD               	movwf	??_longTimerSet
  4084  03EC  3001               	movlw	1
  4085  03ED                     u755:	
  4086  03ED  35CD               	lslf	??_longTimerSet,f
  4087  03EE  3EFF               	addlw	-1
  4088  03EF  1D03               	skipz
  4089  03F0  2BED               	goto	u755
  4090  03F1  354D               	lslf	??_longTimerSet,w
  4091  03F2  3E20               	addlw	(low (_longTimers| 0))& (0+255)
  4092  03F3  0086               	movwf	6
  4093  03F4  0187               	clrf	7
  4094  03F5  0849               	movf	longTimerSet@duration,w
  4095  03F6  3FC0               	movwi [0]fsr1
  4096  03F7  084A               	movf	longTimerSet@duration+1,w
  4097  03F8  3FC1               	movwi [1]fsr1
  4098  03F9  084B               	movf	longTimerSet@duration+2,w
  4099  03FA  3FC2               	movwi [2]fsr1
  4100  03FB  084C               	movf	longTimerSet@duration+3,w
  4101  03FC  3FC3               	movwi [3]fsr1
  4102  03FD  0008               	return
  4103  03FE                     __end_of_longTimerSet:	
  4104                           
  4105                           	psect	text40
  4106  029B                     __ptext40:	
  4107 ;; *************** function _getRunEvent *****************
  4108 ;; Defined at:
  4109 ;;		line 368 in file "../source/eventhandler.c"
  4110 ;; Parameters:    Size  Location     Type
  4111 ;;		None
  4112 ;; Auto vars:     Size  Location     Type
  4113 ;;		None
  4114 ;; Return value:  Size  Location     Type
  4115 ;;                  1    wreg      enum E2354
  4116 ;; Registers used:
  4117 ;;		wreg, fsr1l, fsr1h, status,2, status,0, pclath, cstack
  4118 ;; Tracked objects:
  4119 ;;		On entry : 0/0
  4120 ;;		On exit  : 0/0
  4121 ;;		Unchanged: 0/0
  4122 ;; Data sizes:     COMMON   BANK0   BANK1
  4123 ;;      Params:         0       0       0
  4124 ;;      Locals:         0       0       0
  4125 ;;      Temps:          0       0       0
  4126 ;;      Totals:         0       0       0
  4127 ;;Total ram usage:        0 bytes
  4128 ;; Hardware stack levels used:    1
  4129 ;; Hardware stack levels required when called:    4
  4130 ;; This function calls:
  4131 ;;		_clearLED
  4132 ;;		_longTimerLock
  4133 ;;		_longTimerRead
  4134 ;;		_setLED
  4135 ;;		_timerLock
  4136 ;;		_timerRead
  4137 ;; This function is called by:
  4138 ;;		_eventHandlerService
  4139 ;; This function uses a non-reentrant model
  4140 ;;
  4141                           
  4142                           
  4143                           ;psect for function _getRunEvent
  4144  029B                     _getRunEvent:	
  4145                           
  4146                           ;eventhandler.c: 370: if ( timerRead(runSMTimer) == 0 )
  4147                           
  4148                           ;incstack = 0
  4149                           ; Regs used in _getRunEvent: [wreg+fsr1l+fsr1h+status,2+status,0+pclath+cstack]
  4150  029B  0020               	movlb	0	; select bank0
  4151  029C  0839               	movf	_runSMTimer,w
  4152  029D  2478               	fcall	_timerRead
  4153  029E  0020               	movlb	0	; select bank0
  4154  029F  0849               	movf	?_timerRead,w
  4155  02A0  044A               	iorwf	?_timerRead+1,w
  4156  02A1  1D03               	btfss	3,2
  4157  02A2  2AA7               	goto	l2336
  4158                           
  4159                           ;eventhandler.c: 371: {
  4160                           ;eventhandler.c: 372: timerLock( runSMTimer );
  4161  02A3  0839               	movf	_runSMTimer,w
  4162  02A4  24E4               	fcall	_timerLock
  4163                           
  4164                           ;eventhandler.c: 373: return runTimeoutEvent;
  4165  02A5  3001               	movlw	1
  4166                           
  4167                           ;eventhandler.c: 374: }
  4168  02A6  0008               	return
  4169  02A7                     l2336:	
  4170                           
  4171                           ;eventhandler.c: 375: else if (timerRead(buzzerTimer) == 0 )
  4172  02A7  0877               	movf	_buzzerTimer,w
  4173  02A8  2478               	fcall	_timerRead
  4174  02A9  0020               	movlb	0	; select bank0
  4175  02AA  0849               	movf	?_timerRead,w
  4176  02AB  044A               	iorwf	?_timerRead+1,w
  4177  02AC  1D03               	btfss	3,2
  4178  02AD  2ABE               	goto	l2356
  4179                           
  4180                           ;eventhandler.c: 376: {
  4181                           ;eventhandler.c: 377: timerLock( buzzerTimer );
  4182  02AE  0877               	movf	_buzzerTimer,w
  4183  02AF  24E4               	fcall	_timerLock
  4184                           
  4185                           ;eventhandler.c: 378: if (ttog) {
  4186  02B0  0020               	movlb	0	; select bank0
  4187  02B1  0844               	movf	_ttog,w
  4188  02B2  1903               	btfsc	3,2
  4189  02B3  2AB8               	goto	l2346
  4190                           
  4191                           ;eventhandler.c: 379: clearLED();
  4192  02B4  25BB               	fcall	_clearLED
  4193                           
  4194                           ;eventhandler.c: 380: ttog = 0;
  4195  02B5  0020               	movlb	0	; select bank0
  4196  02B6  01C4               	clrf	_ttog
  4197                           
  4198                           ;eventhandler.c: 381: } else {
  4199  02B7  2ABC               	goto	l2350
  4200  02B8                     l2346:	
  4201                           
  4202                           ;eventhandler.c: 382: setLED();
  4203  02B8  25B7               	fcall	_setLED
  4204                           
  4205                           ;eventhandler.c: 383: ttog = !0;
  4206  02B9  0020               	movlb	0	; select bank0
  4207  02BA  01C4               	clrf	_ttog
  4208  02BB  0AC4               	incf	_ttog,f
  4209  02BC                     l2350:	
  4210                           
  4211                           ;eventhandler.c: 384: }
  4212                           ;eventhandler.c: 385: return beepEvent;
  4213  02BC  3003               	movlw	3
  4214                           
  4215                           ;eventhandler.c: 386: }
  4216  02BD  0008               	return
  4217  02BE                     l2356:	
  4218                           
  4219                           ;eventhandler.c: 387: else if (longTimerRead(minuteTimer) == 0)
  4220  02BE  0837               	movf	_minuteTimer,w
  4221  02BF  2363               	fcall	_longTimerRead
  4222  02C0  0020               	movlb	0	; select bank0
  4223  02C1  084C               	movf	?_longTimerRead+3,w
  4224  02C2  044B               	iorwf	?_longTimerRead+2,w
  4225  02C3  044A               	iorwf	?_longTimerRead+1,w
  4226  02C4  0449               	iorwf	?_longTimerRead,w
  4227  02C5  1D03               	skipz
  4228  02C6  2ACB               	goto	l2366
  4229                           
  4230                           ;eventhandler.c: 388: {
  4231                           ;eventhandler.c: 389: longTimerLock( minuteTimer );
  4232  02C7  0837               	movf	_minuteTimer,w
  4233  02C8  23FE               	fcall	_longTimerLock
  4234                           
  4235                           ;eventhandler.c: 390: return runTimeoutEvent;
  4236  02C9  3001               	movlw	1
  4237                           
  4238                           ;eventhandler.c: 391: }
  4239  02CA  0008               	return
  4240  02CB                     l2366:	
  4241                           
  4242                           ;eventhandler.c: 392: else if ( chargerInitialised.eventFlag )
  4243  02CB  0020               	movlb	0	; select bank0
  4244  02CC  0824               	movf	_chargerInitialised,w
  4245  02CD  1903               	btfsc	3,2
  4246  02CE  2AD2               	goto	l2376
  4247                           
  4248                           ;eventhandler.c: 393: {
  4249                           ;eventhandler.c: 394: chargerInitialised.eventFlag = 0;
  4250  02CF  01A4               	clrf	_chargerInitialised
  4251                           
  4252                           ;eventhandler.c: 395: return initialisedEvent;
  4253  02D0  3002               	movlw	2
  4254                           
  4255                           ;eventhandler.c: 396: }
  4256  02D1  0008               	return
  4257  02D2                     l2376:	
  4258                           
  4259                           ;eventhandler.c: 397: else
  4260                           ;eventhandler.c: 398: return noRunEvent;
  4261  02D2  3000               	movlw	0
  4262  02D3  0008               	return
  4263  02D4                     __end_of_getRunEvent:	
  4264                           
  4265                           	psect	text41
  4266  05B7                     __ptext41:	
  4267 ;; *************** function _setLED *****************
  4268 ;; Defined at:
  4269 ;;		line 19 in file "../source/LED.c"
  4270 ;; Parameters:    Size  Location     Type
  4271 ;;		None
  4272 ;; Auto vars:     Size  Location     Type
  4273 ;;		None
  4274 ;; Return value:  Size  Location     Type
  4275 ;;                  1    wreg      void 
  4276 ;; Registers used:
  4277 ;;		status,2
  4278 ;; Tracked objects:
  4279 ;;		On entry : 0/0
  4280 ;;		On exit  : 0/0
  4281 ;;		Unchanged: 0/0
  4282 ;; Data sizes:     COMMON   BANK0   BANK1
  4283 ;;      Params:         0       0       0
  4284 ;;      Locals:         0       0       0
  4285 ;;      Temps:          0       0       0
  4286 ;;      Totals:         0       0       0
  4287 ;;Total ram usage:        0 bytes
  4288 ;; Hardware stack levels used:    1
  4289 ;; Hardware stack levels required when called:    3
  4290 ;; This function calls:
  4291 ;;		Nothing
  4292 ;; This function is called by:
  4293 ;;		_getRunEvent
  4294 ;; This function uses a non-reentrant model
  4295 ;;
  4296                           
  4297                           
  4298                           ;psect for function _setLED
  4299  05B7                     _setLED:	
  4300                           
  4301                           ;LED.c: 21: flashing = 0;
  4302                           
  4303                           ;incstack = 0
  4304                           ; Regs used in _setLED: [status,2]
  4305  05B7  0020               	movlb	0	; select bank0
  4306  05B8  01C1               	clrf	_flashing
  4307                           
  4308                           ;LED.c: 22: PORTAbits.RA5 = 0;
  4309  05B9  128C               	bcf	12,5	;volatile
  4310  05BA  0008               	return
  4311  05BB                     __end_of_setLED:	
  4312                           
  4313                           	psect	text42
  4314  0363                     __ptext42:	
  4315 ;; *************** function _longTimerRead *****************
  4316 ;; Defined at:
  4317 ;;		line 224 in file "../source/timer.c"
  4318 ;; Parameters:    Size  Location     Type
  4319 ;;  index           1    wreg     unsigned char 
  4320 ;; Auto vars:     Size  Location     Type
  4321 ;;  index           1    9[BANK0 ] unsigned char 
  4322 ;;  result          4    5[BANK0 ] unsigned long 
  4323 ;; Return value:  Size  Location     Type
  4324 ;;                  4    0[BANK0 ] unsigned long 
  4325 ;; Registers used:
  4326 ;;		wreg, fsr1l, fsr1h, status,2, status,0
  4327 ;; Tracked objects:
  4328 ;;		On entry : 0/0
  4329 ;;		On exit  : 0/0
  4330 ;;		Unchanged: 0/0
  4331 ;; Data sizes:     COMMON   BANK0   BANK1
  4332 ;;      Params:         0       4       0
  4333 ;;      Locals:         0       5       0
  4334 ;;      Temps:          0       1       0
  4335 ;;      Totals:         0      10       0
  4336 ;;Total ram usage:       10 bytes
  4337 ;; Hardware stack levels used:    1
  4338 ;; Hardware stack levels required when called:    3
  4339 ;; This function calls:
  4340 ;;		Nothing
  4341 ;; This function is called by:
  4342 ;;		_getRunEvent
  4343 ;; This function uses a non-reentrant model
  4344 ;;
  4345                           
  4346                           
  4347                           ;psect for function _longTimerRead
  4348  0363                     _longTimerRead:	
  4349                           
  4350                           ;incstack = 0
  4351                           ; Regs used in _longTimerRead: [wreg+fsr1l+fsr1h+status,2+status,0]
  4352                           ;longTimerRead@index stored from wreg
  4353  0363  0020               	movlb	0	; select bank0
  4354  0364  00D2               	movwf	longTimerRead@index
  4355                           
  4356                           ;timer.c: 226: unsigned long result = 0xFFFFFFFF;
  4357  0365  30FF               	movlw	255
  4358  0366  00D1               	movwf	longTimerRead@result+3
  4359  0367  30FF               	movlw	255
  4360  0368  00D0               	movwf	longTimerRead@result+2
  4361  0369  30FF               	movlw	255
  4362  036A  00CF               	movwf	longTimerRead@result+1
  4363  036B  30FF               	movlw	255
  4364  036C  00CE               	movwf	longTimerRead@result
  4365                           
  4366                           ;timer.c: 227: if ( index < numLongTimers )
  4367  036D  087B               	movf	_numLongTimers,w
  4368  036E  0252               	subwf	longTimerRead@index,w
  4369  036F  1803               	skipnc
  4370  0370  2B84               	goto	l1728
  4371                           
  4372                           ;timer.c: 228: {
  4373                           ;timer.c: 229: result = longTimers[index];
  4374  0371  0852               	movf	longTimerRead@index,w
  4375  0372  00CD               	movwf	??_longTimerRead
  4376  0373  3001               	movlw	1
  4377  0374                     u785:	
  4378  0374  35CD               	lslf	??_longTimerRead,f
  4379  0375  3EFF               	addlw	-1
  4380  0376  1D03               	skipz
  4381  0377  2B74               	goto	u785
  4382  0378  354D               	lslf	??_longTimerRead,w
  4383  0379  3E20               	addlw	(low (_longTimers| 0))& (0+255)
  4384  037A  0086               	movwf	6
  4385  037B  0187               	clrf	7
  4386  037C  3F40               	moviw [0]fsr1
  4387  037D  00CE               	movwf	longTimerRead@result
  4388  037E  3F41               	moviw [1]fsr1
  4389  037F  00CF               	movwf	longTimerRead@result+1
  4390  0380  3F42               	moviw [2]fsr1
  4391  0381  00D0               	movwf	longTimerRead@result+2
  4392  0382  3F43               	moviw [3]fsr1
  4393  0383  00D1               	movwf	longTimerRead@result+3
  4394  0384                     l1728:	
  4395                           
  4396                           ;timer.c: 230: }
  4397                           ;timer.c: 231: return ( result );
  4398  0384  0851               	movf	longTimerRead@result+3,w
  4399  0385  00CC               	movwf	?_longTimerRead+3
  4400  0386  0850               	movf	longTimerRead@result+2,w
  4401  0387  00CB               	movwf	?_longTimerRead+2
  4402  0388  084F               	movf	longTimerRead@result+1,w
  4403  0389  00CA               	movwf	?_longTimerRead+1
  4404  038A  084E               	movf	longTimerRead@result,w
  4405  038B  00C9               	movwf	?_longTimerRead
  4406  038C  0008               	return
  4407  038D                     __end_of_longTimerRead:	
  4408                           
  4409                           	psect	text43
  4410  03FE                     __ptext43:	
  4411 ;; *************** function _longTimerLock *****************
  4412 ;; Defined at:
  4413 ;;		line 242 in file "../source/timer.c"
  4414 ;; Parameters:    Size  Location     Type
  4415 ;;  index           1    wreg     unsigned char 
  4416 ;; Auto vars:     Size  Location     Type
  4417 ;;  index           1    1[BANK0 ] unsigned char 
  4418 ;; Return value:  Size  Location     Type
  4419 ;;                  1    wreg      void 
  4420 ;; Registers used:
  4421 ;;		wreg, fsr1l, fsr1h, status,2, status,0
  4422 ;; Tracked objects:
  4423 ;;		On entry : 0/0
  4424 ;;		On exit  : 0/0
  4425 ;;		Unchanged: 0/0
  4426 ;; Data sizes:     COMMON   BANK0   BANK1
  4427 ;;      Params:         0       0       0
  4428 ;;      Locals:         0       1       0
  4429 ;;      Temps:          0       1       0
  4430 ;;      Totals:         0       2       0
  4431 ;;Total ram usage:        2 bytes
  4432 ;; Hardware stack levels used:    1
  4433 ;; Hardware stack levels required when called:    3
  4434 ;; This function calls:
  4435 ;;		Nothing
  4436 ;; This function is called by:
  4437 ;;		_getRunEvent
  4438 ;;		_longTimerGet
  4439 ;; This function uses a non-reentrant model
  4440 ;;
  4441                           
  4442                           
  4443                           ;psect for function _longTimerLock
  4444  03FE                     _longTimerLock:	
  4445                           
  4446                           ;incstack = 0
  4447                           ; Regs used in _longTimerLock: [wreg+fsr1l+fsr1h+status,2+status,0]
  4448                           ;longTimerLock@index stored from wreg
  4449  03FE  0020               	movlb	0	; select bank0
  4450  03FF  00CA               	movwf	longTimerLock@index
  4451                           
  4452                           ;timer.c: 244: if ( index < numLongTimers )
  4453  0400  087B               	movf	_numLongTimers,w
  4454  0401  024A               	subwf	longTimerLock@index,w
  4455  0402  1803               	skipnc
  4456  0403  0008               	return
  4457                           
  4458                           ;timer.c: 245: {
  4459                           ;timer.c: 246: longTimers[index] = 0xFFFFFFFF;
  4460  0404  084A               	movf	longTimerLock@index,w
  4461  0405  00C9               	movwf	??_longTimerLock
  4462  0406  3001               	movlw	1
  4463  0407                     u725:	
  4464  0407  35C9               	lslf	??_longTimerLock,f
  4465  0408  3EFF               	addlw	-1
  4466  0409  1D03               	skipz
  4467  040A  2C07               	goto	u725
  4468  040B  3549               	lslf	??_longTimerLock,w
  4469  040C  3E20               	addlw	(low (_longTimers| 0))& (0+255)
  4470  040D  0086               	movwf	6
  4471  040E  0187               	clrf	7
  4472  040F  30FF               	movlw	255
  4473  0410  3FC0               	movwi [0]fsr1
  4474  0411  30FF               	movlw	255
  4475  0412  3FC1               	movwi [1]fsr1
  4476  0413  30FF               	movlw	255
  4477  0414  3FC2               	movwi [2]fsr1
  4478  0415  30FF               	movlw	255
  4479  0416  3FC3               	movwi [3]fsr1
  4480  0417  0008               	return
  4481  0418                     __end_of_longTimerLock:	
  4482                           
  4483                           	psect	text44
  4484  05BB                     __ptext44:	
  4485 ;; *************** function _clearLED *****************
  4486 ;; Defined at:
  4487 ;;		line 25 in file "../source/LED.c"
  4488 ;; Parameters:    Size  Location     Type
  4489 ;;		None
  4490 ;; Auto vars:     Size  Location     Type
  4491 ;;		None
  4492 ;; Return value:  Size  Location     Type
  4493 ;;                  1    wreg      void 
  4494 ;; Registers used:
  4495 ;;		status,2
  4496 ;; Tracked objects:
  4497 ;;		On entry : 0/0
  4498 ;;		On exit  : 0/0
  4499 ;;		Unchanged: 0/0
  4500 ;; Data sizes:     COMMON   BANK0   BANK1
  4501 ;;      Params:         0       0       0
  4502 ;;      Locals:         0       0       0
  4503 ;;      Temps:          0       0       0
  4504 ;;      Totals:         0       0       0
  4505 ;;Total ram usage:        0 bytes
  4506 ;; Hardware stack levels used:    1
  4507 ;; Hardware stack levels required when called:    3
  4508 ;; This function calls:
  4509 ;;		Nothing
  4510 ;; This function is called by:
  4511 ;;		_getRunEvent
  4512 ;; This function uses a non-reentrant model
  4513 ;;
  4514                           
  4515                           
  4516                           ;psect for function _clearLED
  4517  05BB                     _clearLED:	
  4518                           
  4519                           ;LED.c: 27: flashing = 0;
  4520                           
  4521                           ;incstack = 0
  4522                           ; Regs used in _clearLED: [status,2]
  4523  05BB  0020               	movlb	0	; select bank0
  4524  05BC  01C1               	clrf	_flashing
  4525                           
  4526                           ;LED.c: 28: PORTAbits.RA5 = 1;
  4527  05BD  168C               	bsf	12,5	;volatile
  4528  05BE  0008               	return
  4529  05BF                     __end_of_clearLED:	
  4530                           
  4531                           	psect	text45
  4532  018D                     __ptext45:	
  4533 ;; *************** function _getInitEvent *****************
  4534 ;; Defined at:
  4535 ;;		line 219 in file "../source/eventhandler.c"
  4536 ;; Parameters:    Size  Location     Type
  4537 ;;		None
  4538 ;; Auto vars:     Size  Location     Type
  4539 ;;		None
  4540 ;; Return value:  Size  Location     Type
  4541 ;;                  1    wreg      enum E2237
  4542 ;; Registers used:
  4543 ;;		wreg, fsr1l, fsr1h, status,2, status,0, pclath, cstack
  4544 ;; Tracked objects:
  4545 ;;		On entry : 0/0
  4546 ;;		On exit  : 0/0
  4547 ;;		Unchanged: 0/0
  4548 ;; Data sizes:     COMMON   BANK0   BANK1
  4549 ;;      Params:         0       0       0
  4550 ;;      Locals:         0       0       0
  4551 ;;      Temps:          0       4       0
  4552 ;;      Totals:         0       4       0
  4553 ;;Total ram usage:        4 bytes
  4554 ;; Hardware stack levels used:    1
  4555 ;; Hardware stack levels required when called:    4
  4556 ;; This function calls:
  4557 ;;		_timerLock
  4558 ;;		_timerRead
  4559 ;; This function is called by:
  4560 ;;		_eventHandlerService
  4561 ;; This function uses a non-reentrant model
  4562 ;;
  4563                           
  4564                           
  4565                           ;psect for function _getInitEvent
  4566  018D                     _getInitEvent:	
  4567                           
  4568                           ;eventhandler.c: 221: if ( timerRead(initSMTimer) == 0 )
  4569                           
  4570                           ;incstack = 0
  4571                           ; Regs used in _getInitEvent: [wreg+fsr1l+fsr1h+status,2+status,0+pclath+cstack]
  4572  018D  0020               	movlb	0	; select bank0
  4573  018E  083B               	movf	_initSMTimer,w
  4574  018F  2478               	fcall	_timerRead
  4575  0190  0020               	movlb	0	; select bank0
  4576  0191  0849               	movf	?_timerRead,w
  4577  0192  044A               	iorwf	?_timerRead+1,w
  4578  0193  1D03               	btfss	3,2
  4579  0194  2999               	goto	l2250
  4580                           
  4581                           ;eventhandler.c: 222: {
  4582                           ;eventhandler.c: 223: timerLock( initSMTimer );
  4583  0195  083B               	movf	_initSMTimer,w
  4584  0196  24E4               	fcall	_timerLock
  4585                           
  4586                           ;eventhandler.c: 224: return initTimeoutEvent;
  4587  0197  3001               	movlw	1
  4588  0198  0008               	return
  4589  0199                     l2250:	
  4590                           ;eventhandler.c: 225: }
  4591                           
  4592                           
  4593                           ;eventhandler.c: 226: else if ( redWentHigh.eventFlag )
  4594  0199  0020               	movlb	0	; select bank0
  4595  019A  082A               	movf	_redWentHigh,w
  4596  019B  1903               	btfsc	3,2
  4597  019C  29BB               	goto	l2268
  4598                           
  4599                           ;eventhandler.c: 227: {
  4600                           ;eventhandler.c: 229: if (greenWentHigh.eventFlag )
  4601  019D  0830               	movf	_greenWentHigh,w
  4602  019E  1903               	btfsc	3,2
  4603  019F  29B8               	goto	l2262
  4604                           
  4605                           ;eventhandler.c: 230: {
  4606                           ;eventhandler.c: 231: if ( systick - greenWentHigh.eventTime >= 2)
  4607  01A0  0931               	comf	_greenWentHigh+1,w
  4608  01A1  00CF               	movwf	??_getInitEvent
  4609  01A2  0932               	comf	_greenWentHigh+2,w
  4610  01A3  00D0               	movwf	??_getInitEvent+1
  4611  01A4  0ACF               	incf	??_getInitEvent,f
  4612  01A5  1903               	skipnz
  4613  01A6  0AD0               	incf	??_getInitEvent+1,f
  4614  01A7  0879               	movf	_systick,w
  4615  01A8  074F               	addwf	??_getInitEvent,w
  4616  01A9  00D1               	movwf	??_getInitEvent+2
  4617  01AA  087A               	movf	_systick+1,w
  4618  01AB  3D50               	addwfc	??_getInitEvent+1,w
  4619  01AC  00D2               	movwf	??_getInitEvent+3
  4620  01AD  3000               	movlw	0
  4621  01AE  0252               	subwf	??_getInitEvent+3,w
  4622  01AF  3002               	movlw	2
  4623  01B0  1903               	skipnz
  4624  01B1  0251               	subwf	??_getInitEvent+2,w
  4625  01B2  1C03               	skipc
  4626  01B3  2A1E               	goto	l2322
  4627                           
  4628                           ;eventhandler.c: 232: {
  4629                           ;eventhandler.c: 233: greenWentHigh.eventFlag = 0;
  4630  01B4  01B0               	clrf	_greenWentHigh
  4631                           
  4632                           ;eventhandler.c: 234: redWentHigh.eventFlag = 0;
  4633  01B5  01AA               	clrf	_redWentHigh
  4634                           
  4635                           ;eventhandler.c: 235: return bothHighEvent;
  4636  01B6  3006               	movlw	6
  4637  01B7  0008               	return
  4638  01B8                     l2262:	
  4639                           ;eventhandler.c: 236: }
  4640                           ;eventhandler.c: 237: }
  4641                           
  4642                           
  4643                           ;eventhandler.c: 238: else
  4644                           ;eventhandler.c: 239: {
  4645                           ;eventhandler.c: 240: redWentHigh.eventFlag = 0;
  4646  01B8  01AA               	clrf	_redWentHigh
  4647                           
  4648                           ;eventhandler.c: 241: return redHighEvent;
  4649  01B9  3004               	movlw	4
  4650  01BA  0008               	return
  4651  01BB                     l2268:	
  4652                           ;eventhandler.c: 242: }
  4653                           ;eventhandler.c: 243: }
  4654                           
  4655                           
  4656                           ;eventhandler.c: 244: else if ( redWentLow.eventFlag )
  4657  01BB  0827               	movf	_redWentLow,w
  4658  01BC  1903               	btfsc	3,2
  4659  01BD  29DC               	goto	l2286
  4660                           
  4661                           ;eventhandler.c: 245: {
  4662                           ;eventhandler.c: 246: if (greenWentLow.eventFlag )
  4663  01BE  082D               	movf	_greenWentLow,w
  4664  01BF  1903               	btfsc	3,2
  4665  01C0  29D9               	goto	l2280
  4666                           
  4667                           ;eventhandler.c: 247: {
  4668                           ;eventhandler.c: 248: if ( systick - greenWentLow.eventTime >= 2)
  4669  01C1  092E               	comf	_greenWentLow+1,w
  4670  01C2  00CF               	movwf	??_getInitEvent
  4671  01C3  092F               	comf	_greenWentLow+2,w
  4672  01C4  00D0               	movwf	??_getInitEvent+1
  4673  01C5  0ACF               	incf	??_getInitEvent,f
  4674  01C6  1903               	skipnz
  4675  01C7  0AD0               	incf	??_getInitEvent+1,f
  4676  01C8  0879               	movf	_systick,w
  4677  01C9  074F               	addwf	??_getInitEvent,w
  4678  01CA  00D1               	movwf	??_getInitEvent+2
  4679  01CB  087A               	movf	_systick+1,w
  4680  01CC  3D50               	addwfc	??_getInitEvent+1,w
  4681  01CD  00D2               	movwf	??_getInitEvent+3
  4682  01CE  3000               	movlw	0
  4683  01CF  0252               	subwf	??_getInitEvent+3,w
  4684  01D0  3002               	movlw	2
  4685  01D1  1903               	skipnz
  4686  01D2  0251               	subwf	??_getInitEvent+2,w
  4687  01D3  1C03               	skipc
  4688  01D4  2A1E               	goto	l2322
  4689                           
  4690                           ;eventhandler.c: 249: {
  4691                           ;eventhandler.c: 250: greenWentLow.eventFlag = 0;
  4692  01D5  01AD               	clrf	_greenWentLow
  4693                           
  4694                           ;eventhandler.c: 251: redWentLow.eventFlag = 0;
  4695  01D6  01A7               	clrf	_redWentLow
  4696                           
  4697                           ;eventhandler.c: 252: return bothLowEvent;
  4698  01D7  3007               	movlw	7
  4699  01D8  0008               	return
  4700  01D9                     l2280:	
  4701                           ;eventhandler.c: 253: }
  4702                           ;eventhandler.c: 254: }
  4703                           
  4704                           
  4705                           ;eventhandler.c: 255: else
  4706                           ;eventhandler.c: 256: {
  4707                           ;eventhandler.c: 257: redWentLow.eventFlag = 0;
  4708  01D9  01A7               	clrf	_redWentLow
  4709                           
  4710                           ;eventhandler.c: 258: return redLowEvent;
  4711  01DA  3005               	movlw	5
  4712  01DB  0008               	return
  4713  01DC                     l2286:	
  4714                           ;eventhandler.c: 259: }
  4715                           ;eventhandler.c: 260: }
  4716                           
  4717                           
  4718                           ;eventhandler.c: 261: else if ( greenWentHigh.eventFlag )
  4719  01DC  0830               	movf	_greenWentHigh,w
  4720  01DD  1903               	btfsc	3,2
  4721  01DE  29FD               	goto	l2304
  4722                           
  4723                           ;eventhandler.c: 262: {
  4724                           ;eventhandler.c: 263: if (redWentHigh.eventFlag )
  4725  01DF  082A               	movf	_redWentHigh,w
  4726  01E0  1903               	btfsc	3,2
  4727  01E1  29FA               	goto	l2298
  4728                           
  4729                           ;eventhandler.c: 264: {
  4730                           ;eventhandler.c: 265: if ( systick - redWentHigh.eventTime >= 2)
  4731  01E2  092B               	comf	_redWentHigh+1,w
  4732  01E3  00CF               	movwf	??_getInitEvent
  4733  01E4  092C               	comf	_redWentHigh+2,w
  4734  01E5  00D0               	movwf	??_getInitEvent+1
  4735  01E6  0ACF               	incf	??_getInitEvent,f
  4736  01E7  1903               	skipnz
  4737  01E8  0AD0               	incf	??_getInitEvent+1,f
  4738  01E9  0879               	movf	_systick,w
  4739  01EA  074F               	addwf	??_getInitEvent,w
  4740  01EB  00D1               	movwf	??_getInitEvent+2
  4741  01EC  087A               	movf	_systick+1,w
  4742  01ED  3D50               	addwfc	??_getInitEvent+1,w
  4743  01EE  00D2               	movwf	??_getInitEvent+3
  4744  01EF  3000               	movlw	0
  4745  01F0  0252               	subwf	??_getInitEvent+3,w
  4746  01F1  3002               	movlw	2
  4747  01F2  1903               	skipnz
  4748  01F3  0251               	subwf	??_getInitEvent+2,w
  4749  01F4  1C03               	skipc
  4750  01F5  2A1E               	goto	l2322
  4751                           
  4752                           ;eventhandler.c: 266: {
  4753                           ;eventhandler.c: 267: greenWentHigh.eventFlag = 0;
  4754  01F6  01B0               	clrf	_greenWentHigh
  4755                           
  4756                           ;eventhandler.c: 268: redWentHigh.eventFlag = 0;
  4757  01F7  01AA               	clrf	_redWentHigh
  4758                           
  4759                           ;eventhandler.c: 269: return bothHighEvent;
  4760  01F8  3006               	movlw	6
  4761  01F9  0008               	return
  4762  01FA                     l2298:	
  4763                           ;eventhandler.c: 270: }
  4764                           ;eventhandler.c: 271: }
  4765                           
  4766                           
  4767                           ;eventhandler.c: 272: else
  4768                           ;eventhandler.c: 273: {
  4769                           ;eventhandler.c: 274: greenWentHigh.eventFlag = 0;
  4770  01FA  01B0               	clrf	_greenWentHigh
  4771                           
  4772                           ;eventhandler.c: 275: return greenHighEvent;
  4773  01FB  3002               	movlw	2
  4774  01FC  0008               	return
  4775  01FD                     l2304:	
  4776                           ;eventhandler.c: 276: }
  4777                           ;eventhandler.c: 278: }
  4778                           
  4779                           
  4780                           ;eventhandler.c: 279: else if ( greenWentLow.eventFlag )
  4781  01FD  082D               	movf	_greenWentLow,w
  4782  01FE  1903               	btfsc	3,2
  4783  01FF  2A1E               	goto	l2322
  4784                           
  4785                           ;eventhandler.c: 280: {
  4786                           ;eventhandler.c: 281: if (redWentLow.eventFlag )
  4787  0200  0827               	movf	_redWentLow,w
  4788  0201  1903               	btfsc	3,2
  4789  0202  2A1B               	goto	l2316
  4790                           
  4791                           ;eventhandler.c: 282: {
  4792                           ;eventhandler.c: 283: if ( systick - redWentLow.eventTime >= 2)
  4793  0203  0928               	comf	_redWentLow+1,w
  4794  0204  00CF               	movwf	??_getInitEvent
  4795  0205  0929               	comf	_redWentLow+2,w
  4796  0206  00D0               	movwf	??_getInitEvent+1
  4797  0207  0ACF               	incf	??_getInitEvent,f
  4798  0208  1903               	skipnz
  4799  0209  0AD0               	incf	??_getInitEvent+1,f
  4800  020A  0879               	movf	_systick,w
  4801  020B  074F               	addwf	??_getInitEvent,w
  4802  020C  00D1               	movwf	??_getInitEvent+2
  4803  020D  087A               	movf	_systick+1,w
  4804  020E  3D50               	addwfc	??_getInitEvent+1,w
  4805  020F  00D2               	movwf	??_getInitEvent+3
  4806  0210  3000               	movlw	0
  4807  0211  0252               	subwf	??_getInitEvent+3,w
  4808  0212  3002               	movlw	2
  4809  0213  1903               	skipnz
  4810  0214  0251               	subwf	??_getInitEvent+2,w
  4811  0215  1C03               	skipc
  4812  0216  2A1E               	goto	l2322
  4813                           
  4814                           ;eventhandler.c: 284: {
  4815                           ;eventhandler.c: 285: greenWentLow.eventFlag = 0;
  4816  0217  01AD               	clrf	_greenWentLow
  4817                           
  4818                           ;eventhandler.c: 286: redWentLow.eventFlag = 0;
  4819  0218  01A7               	clrf	_redWentLow
  4820                           
  4821                           ;eventhandler.c: 287: return bothLowEvent;
  4822  0219  3007               	movlw	7
  4823  021A  0008               	return
  4824  021B                     l2316:	
  4825                           ;eventhandler.c: 288: }
  4826                           ;eventhandler.c: 289: }
  4827                           
  4828                           
  4829                           ;eventhandler.c: 290: else
  4830                           ;eventhandler.c: 291: {
  4831                           ;eventhandler.c: 292: greenWentLow.eventFlag = 0;
  4832  021B  01AD               	clrf	_greenWentLow
  4833                           
  4834                           ;eventhandler.c: 293: return greenLowEvent;
  4835  021C  3003               	movlw	3
  4836  021D  0008               	return
  4837  021E                     l2322:	
  4838                           
  4839                           ;eventhandler.c: 294: }
  4840                           ;eventhandler.c: 295: }
  4841                           ;eventhandler.c: 297: return noInitEvent;
  4842  021E  3000               	movlw	0
  4843  021F  0008               	return
  4844  0220                     __end_of_getInitEvent:	
  4845                           
  4846                           	psect	text46
  4847  04E4                     __ptext46:	
  4848 ;; *************** function _timerLock *****************
  4849 ;; Defined at:
  4850 ;;		line 157 in file "../source/timer.c"
  4851 ;; Parameters:    Size  Location     Type
  4852 ;;  index           1    wreg     unsigned char 
  4853 ;; Auto vars:     Size  Location     Type
  4854 ;;  index           1    0[BANK0 ] unsigned char 
  4855 ;; Return value:  Size  Location     Type
  4856 ;;                  1    wreg      void 
  4857 ;; Registers used:
  4858 ;;		wreg, fsr1l, fsr1h, status,2, status,0
  4859 ;; Tracked objects:
  4860 ;;		On entry : 0/0
  4861 ;;		On exit  : 0/0
  4862 ;;		Unchanged: 0/0
  4863 ;; Data sizes:     COMMON   BANK0   BANK1
  4864 ;;      Params:         0       0       0
  4865 ;;      Locals:         0       1       0
  4866 ;;      Temps:          0       0       0
  4867 ;;      Totals:         0       1       0
  4868 ;;Total ram usage:        1 bytes
  4869 ;; Hardware stack levels used:    1
  4870 ;; Hardware stack levels required when called:    3
  4871 ;; This function calls:
  4872 ;;		Nothing
  4873 ;; This function is called by:
  4874 ;;		_initS2_Timeout
  4875 ;;		_initS8_bothLow
  4876 ;;		_getInitEvent
  4877 ;;		_getRunEvent
  4878 ;;		_timerGet
  4879 ;; This function uses a non-reentrant model
  4880 ;;
  4881                           
  4882                           
  4883                           ;psect for function _timerLock
  4884  04E4                     _timerLock:	
  4885                           
  4886                           ;incstack = 0
  4887                           ; Regs used in _timerLock: [wreg+fsr1l+fsr1h+status,2+status,0]
  4888                           ;timerLock@index stored from wreg
  4889  04E4  0020               	movlb	0	; select bank0
  4890  04E5  00C9               	movwf	timerLock@index
  4891                           
  4892                           ;timer.c: 159: if ( index < numTimers )
  4893  04E6  087C               	movf	_numTimers,w
  4894  04E7  0249               	subwf	timerLock@index,w
  4895  04E8  1803               	skipnc
  4896  04E9  0008               	return
  4897                           
  4898                           ;timer.c: 160: {
  4899                           ;timer.c: 161: timers[index] = 0xFFFF;
  4900  04EA  3549               	lslf	timerLock@index,w
  4901  04EB  3EA0               	addlw	(low (_timers| 0))& (0+255)
  4902  04EC  0086               	movwf	6
  4903  04ED  0187               	clrf	7
  4904  04EE  30FF               	movlw	255
  4905  04EF  3FC0               	movwi [0]fsr1
  4906  04F0  30FF               	movlw	255
  4907  04F1  3FC1               	movwi [1]fsr1
  4908  04F2  0008               	return
  4909  04F3                     __end_of_timerLock:	
  4910                           
  4911                           	psect	text47
  4912  03AD                     __ptext47:	
  4913 ;; *************** function ___wmul *****************
  4914 ;; Defined at:
  4915 ;;		line 15 in file "C:\Program Files (x86)\Microchip\xc8\v1.41\sources\common\Umul16.c"
  4916 ;; Parameters:    Size  Location     Type
  4917 ;;  multiplier      2    0[BANK0 ] unsigned int 
  4918 ;;  multiplicand    2    2[BANK0 ] unsigned int 
  4919 ;; Auto vars:     Size  Location     Type
  4920 ;;  product         2    4[BANK0 ] unsigned int 
  4921 ;; Return value:  Size  Location     Type
  4922 ;;                  2    0[BANK0 ] unsigned int 
  4923 ;; Registers used:
  4924 ;;		wreg, status,2, status,0
  4925 ;; Tracked objects:
  4926 ;;		On entry : 0/0
  4927 ;;		On exit  : 0/0
  4928 ;;		Unchanged: 0/0
  4929 ;; Data sizes:     COMMON   BANK0   BANK1
  4930 ;;      Params:         0       4       0
  4931 ;;      Locals:         0       2       0
  4932 ;;      Temps:          0       0       0
  4933 ;;      Totals:         0       6       0
  4934 ;;Total ram usage:        6 bytes
  4935 ;; Hardware stack levels used:    1
  4936 ;; Hardware stack levels required when called:    3
  4937 ;; This function calls:
  4938 ;;		Nothing
  4939 ;; This function is called by:
  4940 ;;		_eventHandlerService
  4941 ;; This function uses a non-reentrant model
  4942 ;;
  4943                           
  4944                           
  4945                           ;psect for function ___wmul
  4946  03AD                     ___wmul:	
  4947                           
  4948                           ;incstack = 0
  4949                           ; Regs used in ___wmul: [wreg+status,2+status,0]
  4950  03AD  0020               	movlb	0	; select bank0
  4951  03AE  01CD               	clrf	___wmul@product
  4952  03AF  01CE               	clrf	___wmul@product+1
  4953  03B0                     l2492:	
  4954  03B0  1C49               	btfss	___wmul@multiplier,0
  4955  03B1  2BB6               	goto	l696
  4956  03B2  084B               	movf	___wmul@multiplicand,w
  4957  03B3  07CD               	addwf	___wmul@product,f
  4958  03B4  084C               	movf	___wmul@multiplicand+1,w
  4959  03B5  3DCE               	addwfc	___wmul@product+1,f
  4960  03B6                     l696:	
  4961  03B6  3001               	movlw	1
  4962  03B7                     u1605:	
  4963  03B7  35CB               	lslf	___wmul@multiplicand,f
  4964  03B8  0DCC               	rlf	___wmul@multiplicand+1,f
  4965  03B9  0B89               	decfsz	9,f
  4966  03BA  2BB7               	goto	u1605
  4967  03BB  3001               	movlw	1
  4968  03BC                     u1615:	
  4969  03BC  36CA               	lsrf	___wmul@multiplier+1,f
  4970  03BD  0CC9               	rrf	___wmul@multiplier,f
  4971  03BE  0B89               	decfsz	9,f
  4972  03BF  2BBC               	goto	u1615
  4973  03C0  0849               	movf	___wmul@multiplier,w
  4974  03C1  044A               	iorwf	___wmul@multiplier+1,w
  4975  03C2  1D03               	btfss	3,2
  4976  03C3  2BB0               	goto	l2492
  4977  03C4  084E               	movf	___wmul@product+1,w
  4978  03C5  00CA               	movwf	?___wmul+1
  4979  03C6  084D               	movf	___wmul@product,w
  4980  03C7  00C9               	movwf	?___wmul
  4981  03C8  0008               	return
  4982  03C9                     __end_of___wmul:	
  4983                           
  4984                           	psect	text48
  4985  0338                     __ptext48:	
  4986 ;; *************** function _beeperService *****************
  4987 ;; Defined at:
  4988 ;;		line 103 in file "../source/beeper.c"
  4989 ;; Parameters:    Size  Location     Type
  4990 ;;		None
  4991 ;; Auto vars:     Size  Location     Type
  4992 ;;		None
  4993 ;; Return value:  Size  Location     Type
  4994 ;;                  1    wreg      void 
  4995 ;; Registers used:
  4996 ;;		wreg, fsr1l, fsr1h, status,2, status,0, pclath, cstack
  4997 ;; Tracked objects:
  4998 ;;		On entry : 0/0
  4999 ;;		On exit  : 0/0
  5000 ;;		Unchanged: 0/0
  5001 ;; Data sizes:     COMMON   BANK0   BANK1
  5002 ;;      Params:         0       0       0
  5003 ;;      Locals:         0       0       0
  5004 ;;      Temps:          0       0       0
  5005 ;;      Totals:         0       0       0
  5006 ;;Total ram usage:        0 bytes
  5007 ;; Hardware stack levels used:    1
  5008 ;; Hardware stack levels required when called:    4
  5009 ;; This function calls:
  5010 ;;		_timerRead
  5011 ;;		_timerSet
  5012 ;; This function is called by:
  5013 ;;		_main
  5014 ;; This function uses a non-reentrant model
  5015 ;;
  5016                           
  5017                           
  5018                           ;psect for function _beeperService
  5019  0338                     _beeperService:	
  5020                           
  5021                           ;beeper.c: 105: if (repeatedBeeping)
  5022                           
  5023                           ;incstack = 0
  5024                           ; Regs used in _beeperService: [wreg+fsr1l+fsr1h+status,2+status,0+pclath+cstack]
  5025  0338  0020               	movlb	0	; select bank0
  5026  0339  083E               	movf	_repeatedBeeping,w
  5027  033A  1903               	btfsc	3,2
  5028  033B  0008               	return
  5029                           
  5030                           ;beeper.c: 106: {
  5031                           ;beeper.c: 107: if ( timerRead(beeperTimer) == 0 )
  5032  033C  0840               	movf	_beeperTimer,w
  5033  033D  2478               	fcall	_timerRead
  5034  033E  0020               	movlb	0	; select bank0
  5035  033F  0849               	movf	?_timerRead,w
  5036  0340  044A               	iorwf	?_timerRead+1,w
  5037  0341  1D03               	btfss	3,2
  5038  0342  0008               	return
  5039                           
  5040                           ;beeper.c: 108: {
  5041                           ;beeper.c: 109: if (beeperToggle)
  5042  0343  083F               	movf	_beeperToggle,w
  5043  0344  1903               	btfsc	3,2
  5044  0345  2B49               	goto	l608
  5045                           
  5046                           ;beeper.c: 110: {
  5047                           ;beeper.c: 111: beeperToggle = 0;
  5048  0346  01BF               	clrf	_beeperToggle
  5049                           
  5050                           ;beeper.c: 112: beeperOn = 0;
  5051  0347  01BD               	clrf	_beeperOn
  5052                           
  5053                           ;beeper.c: 113: }
  5054  0348  2B4D               	goto	l2562
  5055  0349                     l608:	
  5056                           
  5057                           ;beeper.c: 114: else
  5058                           ;beeper.c: 115: {
  5059                           ;beeper.c: 116: beeperToggle = !0;
  5060  0349  01BF               	clrf	_beeperToggle
  5061  034A  0ABF               	incf	_beeperToggle,f
  5062                           
  5063                           ;beeper.c: 117: beeperOn = !0;
  5064  034B  01BD               	clrf	_beeperOn
  5065  034C  0ABD               	incf	_beeperOn,f
  5066  034D                     l2562:	
  5067                           
  5068                           ;beeper.c: 118: }
  5069                           ;beeper.c: 120: if (nBeeps != -1)
  5070  034D  0A33               	incf	_nBeeps,w
  5071  034E  1903               	btfsc	3,2
  5072  034F  0A34               	incf	_nBeeps+1,w
  5073  0350  1903               	btfsc	3,2
  5074  0351  2B5C               	goto	l2570
  5075                           
  5076                           ;beeper.c: 121: {
  5077                           ;beeper.c: 122: nBeeps--;
  5078  0352  30FF               	movlw	255
  5079  0353  07B3               	addwf	_nBeeps,f
  5080  0354  30FF               	movlw	255
  5081  0355  3DB4               	addwfc	_nBeeps+1,f
  5082                           
  5083                           ;beeper.c: 123: if (nBeeps == 0)
  5084  0356  0833               	movf	_nBeeps,w
  5085  0357  0434               	iorwf	_nBeeps+1,w
  5086  0358  1D03               	btfss	3,2
  5087  0359  2B5C               	goto	l2570
  5088                           
  5089                           ;beeper.c: 124: {
  5090                           ;beeper.c: 125: repeatedBeeping = 0;
  5091  035A  01BE               	clrf	_repeatedBeeping
  5092                           
  5093                           ;beeper.c: 126: beeperOn = 0;
  5094  035B  01BD               	clrf	_beeperOn
  5095  035C                     l2570:	
  5096                           
  5097                           ;beeper.c: 127: }
  5098                           ;beeper.c: 128: }
  5099                           ;beeper.c: 129: timerSet( beeperTimer, beepRate );
  5100  035C  085C               	movf	_beepRate+1,w
  5101  035D  00CA               	movwf	timerSet@duration+1
  5102  035E  085B               	movf	_beepRate,w
  5103  035F  00C9               	movwf	timerSet@duration
  5104  0360  0840               	movf	_beeperTimer,w
  5105  0361  24F3               	fcall	_timerSet
  5106  0362  0008               	return
  5107  0363                     __end_of_beeperService:	
  5108                           
  5109                           	psect	text49
  5110  03C9                     __ptext49:	
  5111 ;; *************** function _LEDService *****************
  5112 ;; Defined at:
  5113 ;;		line 47 in file "../source/LED.c"
  5114 ;; Parameters:    Size  Location     Type
  5115 ;;		None
  5116 ;; Auto vars:     Size  Location     Type
  5117 ;;		None
  5118 ;; Return value:  Size  Location     Type
  5119 ;;                  1    wreg      void 
  5120 ;; Registers used:
  5121 ;;		wreg, fsr1l, fsr1h, status,2, status,0, pclath, cstack
  5122 ;; Tracked objects:
  5123 ;;		On entry : 0/0
  5124 ;;		On exit  : 0/0
  5125 ;;		Unchanged: 0/0
  5126 ;; Data sizes:     COMMON   BANK0   BANK1
  5127 ;;      Params:         0       0       0
  5128 ;;      Locals:         0       0       0
  5129 ;;      Temps:          0       0       0
  5130 ;;      Totals:         0       0       0
  5131 ;;Total ram usage:        0 bytes
  5132 ;; Hardware stack levels used:    1
  5133 ;; Hardware stack levels required when called:    4
  5134 ;; This function calls:
  5135 ;;		_timerRead
  5136 ;;		_timerSet
  5137 ;; This function is called by:
  5138 ;;		_main
  5139 ;; This function uses a non-reentrant model
  5140 ;;
  5141                           
  5142                           
  5143                           ;psect for function _LEDService
  5144  03C9                     _LEDService:	
  5145                           
  5146                           ;LED.c: 49: if (flashing)
  5147                           
  5148                           ;incstack = 0
  5149                           ; Regs used in _LEDService: [wreg+fsr1l+fsr1h+status,2+status,0+pclath+cstack]
  5150  03C9  0020               	movlb	0	; select bank0
  5151  03CA  0841               	movf	_flashing,w
  5152  03CB  1903               	btfsc	3,2
  5153  03CC  0008               	return
  5154                           
  5155                           ;LED.c: 50: {
  5156                           ;LED.c: 51: if ( timerRead(LEDTimer) == 0 )
  5157  03CD  0843               	movf	_LEDTimer,w
  5158  03CE  2478               	fcall	_timerRead
  5159  03CF  0020               	movlb	0	; select bank0
  5160  03D0  0849               	movf	?_timerRead,w
  5161  03D1  044A               	iorwf	?_timerRead+1,w
  5162  03D2  1D03               	btfss	3,2
  5163  03D3  0008               	return
  5164                           
  5165                           ;LED.c: 52: {
  5166                           ;LED.c: 53: if (flasherToggle)
  5167  03D4  0842               	movf	_flasherToggle,w
  5168  03D5  1903               	btfsc	3,2
  5169  03D6  2BDA               	goto	l362
  5170                           
  5171                           ;LED.c: 54: {
  5172                           ;LED.c: 55: flasherToggle = 0;
  5173  03D7  01C2               	clrf	_flasherToggle
  5174                           
  5175                           ;LED.c: 56: PORTAbits.RA5 = 1;
  5176  03D8  168C               	bsf	12,5	;volatile
  5177                           
  5178                           ;LED.c: 57: }
  5179  03D9  2BDD               	goto	l2534
  5180  03DA                     l362:	
  5181                           
  5182                           ;LED.c: 58: else
  5183                           ;LED.c: 59: {
  5184                           ;LED.c: 60: flasherToggle = !0;
  5185  03DA  01C2               	clrf	_flasherToggle
  5186  03DB  0AC2               	incf	_flasherToggle,f
  5187                           
  5188                           ;LED.c: 61: PORTAbits.RA5 = 0;
  5189  03DC  128C               	bcf	12,5	;volatile
  5190  03DD                     l2534:	
  5191                           
  5192                           ;LED.c: 62: }
  5193                           ;LED.c: 63: timerSet( LEDTimer, flashRate );
  5194  03DD  085E               	movf	_flashRate+1,w
  5195  03DE  00CA               	movwf	timerSet@duration+1
  5196  03DF  085D               	movf	_flashRate,w
  5197  03E0  00C9               	movwf	timerSet@duration
  5198  03E1  0843               	movf	_LEDTimer,w
  5199  03E2  24F3               	fcall	_timerSet
  5200  03E3  0008               	return
  5201  03E4                     __end_of_LEDService:	
  5202                           
  5203                           	psect	text50
  5204  04F3                     __ptext50:	
  5205 ;; *************** function _timerSet *****************
  5206 ;; Defined at:
  5207 ;;		line 123 in file "../source/timer.c"
  5208 ;; Parameters:    Size  Location     Type
  5209 ;;  index           1    wreg     unsigned char 
  5210 ;;  duration        2    0[BANK0 ] unsigned int 
  5211 ;; Auto vars:     Size  Location     Type
  5212 ;;  index           1    2[BANK0 ] unsigned char 
  5213 ;; Return value:  Size  Location     Type
  5214 ;;                  1    wreg      void 
  5215 ;; Registers used:
  5216 ;;		wreg, fsr1l, fsr1h, status,2, status,0
  5217 ;; Tracked objects:
  5218 ;;		On entry : 0/0
  5219 ;;		On exit  : 0/0
  5220 ;;		Unchanged: 0/0
  5221 ;; Data sizes:     COMMON   BANK0   BANK1
  5222 ;;      Params:         0       2       0
  5223 ;;      Locals:         0       1       0
  5224 ;;      Temps:          0       0       0
  5225 ;;      Totals:         0       3       0
  5226 ;;Total ram usage:        3 bytes
  5227 ;; Hardware stack levels used:    1
  5228 ;; Hardware stack levels required when called:    3
  5229 ;; This function calls:
  5230 ;;		Nothing
  5231 ;; This function is called by:
  5232 ;;		_eventHandlerInit
  5233 ;;		_eventHandlerService
  5234 ;;		_init_Restart
  5235 ;;		_initS1_Timeout
  5236 ;;		_initS3_greenHigh
  5237 ;;		_initS4_greenLow
  5238 ;;		_initS5_redHigh
  5239 ;;		_initS6_redLow
  5240 ;;		_initS7_bothHigh
  5241 ;;		_LEDInit
  5242 ;;		_LEDService
  5243 ;;		_beeperInit
  5244 ;;		_beeperService
  5245 ;; This function uses a non-reentrant model
  5246 ;;
  5247                           
  5248                           
  5249                           ;psect for function _timerSet
  5250  04F3                     _timerSet:	
  5251                           
  5252                           ;incstack = 0
  5253                           ; Regs used in _timerSet: [wreg+fsr1l+fsr1h+status,2+status,0]
  5254                           ;timerSet@index stored from wreg
  5255  04F3  0020               	movlb	0	; select bank0
  5256  04F4  00CB               	movwf	timerSet@index
  5257                           
  5258                           ;timer.c: 125: if ( index < numTimers )
  5259  04F5  087C               	movf	_numTimers,w
  5260  04F6  024B               	subwf	timerSet@index,w
  5261  04F7  1803               	skipnc
  5262  04F8  0008               	return
  5263                           
  5264                           ;timer.c: 126: {
  5265                           ;timer.c: 127: timers[index] = duration;
  5266  04F9  354B               	lslf	timerSet@index,w
  5267  04FA  3EA0               	addlw	(low (_timers| 0))& (0+255)
  5268  04FB  0086               	movwf	6
  5269  04FC  0187               	clrf	7
  5270  04FD  0849               	movf	timerSet@duration,w
  5271  04FE  3FC0               	movwi [0]fsr1
  5272  04FF  084A               	movf	timerSet@duration+1,w
  5273  0500  3FC1               	movwi [1]fsr1
  5274  0501  0008               	return
  5275  0502                     __end_of_timerSet:	
  5276                           
  5277                           	psect	text51
  5278  0478                     __ptext51:	
  5279 ;; *************** function _timerRead *****************
  5280 ;; Defined at:
  5281 ;;		line 139 in file "../source/timer.c"
  5282 ;; Parameters:    Size  Location     Type
  5283 ;;  index           1    wreg     unsigned char 
  5284 ;; Auto vars:     Size  Location     Type
  5285 ;;  index           1    5[BANK0 ] unsigned char 
  5286 ;;  result          2    3[BANK0 ] unsigned int 
  5287 ;; Return value:  Size  Location     Type
  5288 ;;                  2    0[BANK0 ] unsigned int 
  5289 ;; Registers used:
  5290 ;;		wreg, fsr1l, fsr1h, status,2, status,0
  5291 ;; Tracked objects:
  5292 ;;		On entry : 0/0
  5293 ;;		On exit  : 0/0
  5294 ;;		Unchanged: 0/0
  5295 ;; Data sizes:     COMMON   BANK0   BANK1
  5296 ;;      Params:         0       3       0
  5297 ;;      Locals:         0       3       0
  5298 ;;      Temps:          0       0       0
  5299 ;;      Totals:         0       6       0
  5300 ;;Total ram usage:        6 bytes
  5301 ;; Hardware stack levels used:    1
  5302 ;; Hardware stack levels required when called:    3
  5303 ;; This function calls:
  5304 ;;		Nothing
  5305 ;; This function is called by:
  5306 ;;		_eventHandlerService
  5307 ;;		_getInitEvent
  5308 ;;		_getRunEvent
  5309 ;;		_LEDService
  5310 ;;		_beeperService
  5311 ;; This function uses a non-reentrant model
  5312 ;;
  5313                           
  5314                           
  5315                           ;psect for function _timerRead
  5316  0478                     _timerRead:	
  5317                           
  5318                           ;incstack = 0
  5319                           ; Regs used in _timerRead: [wreg+fsr1l+fsr1h+status,2+status,0]
  5320                           ;timerRead@index stored from wreg
  5321  0478  0020               	movlb	0	; select bank0
  5322  0479  00CE               	movwf	timerRead@index
  5323                           
  5324                           ;timer.c: 141: unsigned int result = 0xFFFF;
  5325  047A  30FF               	movlw	255
  5326  047B  00CC               	movwf	timerRead@result
  5327  047C  30FF               	movlw	255
  5328  047D  00CD               	movwf	timerRead@result+1
  5329                           
  5330                           ;timer.c: 142: if ( index < numTimers )
  5331  047E  087C               	movf	_numTimers,w
  5332  047F  024E               	subwf	timerRead@index,w
  5333  0480  1803               	skipnc
  5334  0481  2C8A               	goto	l2192
  5335                           
  5336                           ;timer.c: 143: {
  5337                           ;timer.c: 144: result = timers[index];
  5338  0482  354E               	lslf	timerRead@index,w
  5339  0483  3EA0               	addlw	(low (_timers| 0))& (0+255)
  5340  0484  0086               	movwf	6
  5341  0485  0187               	clrf	7
  5342  0486  3F40               	moviw [0]fsr1
  5343  0487  00CC               	movwf	timerRead@result
  5344  0488  3F41               	moviw [1]fsr1
  5345  0489  00CD               	movwf	timerRead@result+1
  5346  048A                     l2192:	
  5347                           
  5348                           ;timer.c: 145: }
  5349                           ;timer.c: 146: return ( result );
  5350  048A  084D               	movf	timerRead@result+1,w
  5351  048B  00CA               	movwf	?_timerRead+1
  5352  048C  084C               	movf	timerRead@result,w
  5353  048D  00C9               	movwf	?_timerRead
  5354  048E  0008               	return
  5355  048F                     __end_of_timerRead:	
  5356                           
  5357                           	psect	intentry
  5358  0004                     __pintentry:	
  5359 ;; *************** function _ISRCode *****************
  5360 ;; Defined at:
  5361 ;;		line 32 in file "../source/interrupt.c"
  5362 ;; Parameters:    Size  Location     Type
  5363 ;;		None
  5364 ;; Auto vars:     Size  Location     Type
  5365 ;;		None
  5366 ;; Return value:  Size  Location     Type
  5367 ;;                  1    wreg      void 
  5368 ;; Registers used:
  5369 ;;		wreg, fsr1l, fsr1h, status,2, status,0, pclath, cstack
  5370 ;; Tracked objects:
  5371 ;;		On entry : 0/0
  5372 ;;		On exit  : 0/0
  5373 ;;		Unchanged: 0/0
  5374 ;; Data sizes:     COMMON   BANK0   BANK1
  5375 ;;      Params:         0       0       0
  5376 ;;      Locals:         0       0       0
  5377 ;;      Temps:          1       0       0
  5378 ;;      Totals:         1       0       0
  5379 ;;Total ram usage:        1 bytes
  5380 ;; Hardware stack levels used:    1
  5381 ;; Hardware stack levels required when called:    2
  5382 ;; This function calls:
  5383 ;;		_IOCInterrupt
  5384 ;;		_timer2Interrupt
  5385 ;;		_timerInterrupt
  5386 ;; This function is called by:
  5387 ;;		Interrupt level 1
  5388 ;; This function uses a non-reentrant model
  5389 ;;
  5390                           
  5391  0004                     _ISRCode:	
  5392                           
  5393                           ;incstack = 0
  5394  0004  147E               	bsf	126,0	;set compiler interrupt flag (level 1)
  5395                           
  5396                           ; Regs used in _ISRCode: [wreg+fsr1l+fsr1h+status,2+status,0+pclath+cstack]
  5397  0005  3180               	pagesel	$
  5398  0006  0020               	movlb	0	; select bank0
  5399  0007  087F               	movf	127,w
  5400  0008  00F6               	movwf	??_ISRCode
  5401                           
  5402                           ;interrupt.c: 34: IOCInterrupt();
  5403  0009  22D4               	fcall	_IOCInterrupt
  5404                           
  5405                           ;interrupt.c: 35: timerInterrupt( );
  5406  000A  20F7               	fcall	_timerInterrupt
  5407                           
  5408                           ;interrupt.c: 36: timer2Interrupt();
  5409  000B  2418               	fcall	_timer2Interrupt
  5410  000C  0876               	movf	??_ISRCode,w
  5411  000D  0020               	movlb	0	; select bank0
  5412  000E  00FF               	movwf	127
  5413  000F  107E               	bcf	126,0	;clear compiler interrupt flag (level 1)
  5414  0010  0009               	retfie
  5415  0011                     __end_of_ISRCode:	
  5416                           
  5417                           	psect	text53
  5418  00F7                     __ptext53:	
  5419 ;; *************** function _timerInterrupt *****************
  5420 ;; Defined at:
  5421 ;;		line 57 in file "../source/timer.c"
  5422 ;; Parameters:    Size  Location     Type
  5423 ;;		None
  5424 ;; Auto vars:     Size  Location     Type
  5425 ;;  i               1    5[COMMON] unsigned char 
  5426 ;; Return value:  Size  Location     Type
  5427 ;;                  1    wreg      void 
  5428 ;; Registers used:
  5429 ;;		wreg, fsr1l, fsr1h, status,2, status,0
  5430 ;; Tracked objects:
  5431 ;;		On entry : 0/0
  5432 ;;		On exit  : 0/0
  5433 ;;		Unchanged: 0/0
  5434 ;; Data sizes:     COMMON   BANK0   BANK1
  5435 ;;      Params:         0       0       0
  5436 ;;      Locals:         1       0       0
  5437 ;;      Temps:          5       0       0
  5438 ;;      Totals:         6       0       0
  5439 ;;Total ram usage:        6 bytes
  5440 ;; Hardware stack levels used:    1
  5441 ;; This function calls:
  5442 ;;		Nothing
  5443 ;; This function is called by:
  5444 ;;		_ISRCode
  5445 ;; This function uses a non-reentrant model
  5446 ;;
  5447                           
  5448                           
  5449                           ;psect for function _timerInterrupt
  5450  00F7                     _timerInterrupt:	
  5451                           
  5452                           ;timer.c: 59: unsigned char i;
  5453                           ;timer.c: 61: if ( PIE1bits.TMR1IE && PIR1bits.TMR1IF )
  5454                           
  5455                           ;incstack = 0
  5456                           ; Regs used in _timerInterrupt: [wreg+fsr1l+fsr1h+status,2+status,0]
  5457  00F7  0021               	movlb	1	; select bank1
  5458  00F8  1C11               	btfss	17,0	;volatile
  5459  00F9  0008               	return
  5460  00FA  0020               	movlb	0	; select bank0
  5461  00FB  1C11               	btfss	17,0	;volatile
  5462  00FC  0008               	return
  5463                           
  5464                           ;timer.c: 62: {
  5465                           ;timer.c: 63: T1CONbits.TMR1ON = 0;
  5466  00FD  1018               	bcf	24,0	;volatile
  5467                           
  5468                           ;timer.c: 64: if ( ( delayTimer != 0 ) )
  5469  00FE  0835               	movf	_delayTimer,w
  5470  00FF  0436               	iorwf	_delayTimer+1,w
  5471  0100  1903               	btfsc	3,2
  5472  0101  2906               	goto	i1l2034
  5473                           
  5474                           ;timer.c: 65: {
  5475                           ;timer.c: 66: delayTimer--;
  5476  0102  3001               	movlw	1
  5477  0103  02B5               	subwf	_delayTimer,f
  5478  0104  3000               	movlw	0
  5479  0105  3BB6               	subwfb	_delayTimer+1,f
  5480  0106                     i1l2034:	
  5481                           
  5482                           ;timer.c: 67: }
  5483                           ;timer.c: 69: for ( i = 0; i < numTimers; i++ )
  5484  0106  01F5               	clrf	timerInterrupt@i
  5485  0107                     i1l2044:	
  5486  0107  087C               	movf	_numTimers,w
  5487  0108  0275               	subwf	timerInterrupt@i,w
  5488  0109  1803               	btfsc	3,0
  5489  010A  292E               	goto	i1l2046
  5490                           
  5491                           ;timer.c: 70: {
  5492                           ;timer.c: 71: if ( ( timers[i] != 0 ) && ( timers[i] != 0xFFFF ) )
  5493  010B  3575               	lslf	timerInterrupt@i,w
  5494  010C  3EA0               	addlw	(low (_timers| 0))& (0+255)
  5495  010D  0086               	movwf	6
  5496  010E  0187               	clrf	7
  5497  010F  0016               	moviw fsr1++
  5498  0110  0401               	iorwf	1,w
  5499  0111  1903               	btfsc	3,2
  5500  0112  2929               	goto	i1l2042
  5501  0113  3575               	lslf	timerInterrupt@i,w
  5502  0114  3EA0               	addlw	(low (_timers| 0))& (0+255)
  5503  0115  0086               	movwf	6
  5504  0116  0187               	clrf	7
  5505  0117  0016               	moviw fsr1++
  5506  0118  3AFF               	xorlw	255
  5507  0119  00F0               	movwf	??_timerInterrupt
  5508  011A  0016               	moviw fsr1++
  5509  011B  3AFF               	xorlw	255
  5510  011C  04F0               	iorwf	??_timerInterrupt,f
  5511  011D  1903               	btfsc	3,2
  5512  011E  2929               	goto	i1l2042
  5513                           
  5514                           ;timer.c: 72: {
  5515                           ;timer.c: 73: timers[i]--;
  5516  011F  3575               	lslf	timerInterrupt@i,w
  5517  0120  3EA0               	addlw	(low (_timers| 0))& (0+255)
  5518  0121  0086               	movwf	6
  5519  0122  0187               	clrf	7
  5520  0123  3001               	movlw	1
  5521  0124  0281               	subwf	1,f
  5522  0125  3141               	addfsr 1,1
  5523  0126  3000               	movlw	0
  5524  0127  3B81               	subwfb	1,f
  5525  0128  317F               	addfsr 1,-1
  5526  0129                     i1l2042:	
  5527  0129  3001               	movlw	1
  5528  012A  00F0               	movwf	??_timerInterrupt
  5529  012B  0870               	movf	??_timerInterrupt,w
  5530  012C  07F5               	addwf	timerInterrupt@i,f
  5531  012D  2907               	goto	i1l2044
  5532  012E                     i1l2046:	
  5533                           
  5534                           ;timer.c: 74: }
  5535                           ;timer.c: 75: }
  5536                           ;timer.c: 77: for ( i = 0; i < numLongTimers; i++ )
  5537  012E  01F5               	clrf	timerInterrupt@i
  5538  012F                     i1l2056:	
  5539  012F  087B               	movf	_numLongTimers,w
  5540  0130  0275               	subwf	timerInterrupt@i,w
  5541  0131  1803               	btfsc	3,0
  5542  0132  2981               	goto	i1l2058
  5543                           
  5544                           ;timer.c: 78: {
  5545                           ;timer.c: 79: if ( ( longTimers[i] != 0 ) && ( longTimers[i] != 0xFFFFFFFF ) )
  5546  0133  0875               	movf	timerInterrupt@i,w
  5547  0134  00F0               	movwf	??_timerInterrupt
  5548  0135  3001               	movlw	1
  5549  0136                     u119_25:	
  5550  0136  35F0               	lslf	??_timerInterrupt,f
  5551  0137  3EFF               	addlw	-1
  5552  0138  1D03               	skipz
  5553  0139  2936               	goto	u119_25
  5554  013A  3570               	lslf	??_timerInterrupt,w
  5555  013B  3E20               	addlw	(low (_longTimers| 0))& (0+255)
  5556  013C  0086               	movwf	6
  5557  013D  0187               	clrf	7
  5558  013E  3F40               	moviw [0]fsr1
  5559  013F  00F1               	movwf	??_timerInterrupt+1
  5560  0140  3F41               	moviw [1]fsr1
  5561  0141  00F2               	movwf	??_timerInterrupt+2
  5562  0142  3F42               	moviw [2]fsr1
  5563  0143  00F3               	movwf	??_timerInterrupt+3
  5564  0144  3F43               	moviw [3]fsr1
  5565  0145  00F4               	movwf	??_timerInterrupt+4
  5566  0146  0874               	movf	??_timerInterrupt+4,w
  5567  0147  0473               	iorwf	??_timerInterrupt+3,w
  5568  0148  0472               	iorwf	??_timerInterrupt+2,w
  5569  0149  0471               	iorwf	??_timerInterrupt+1,w
  5570  014A  1903               	skipnz
  5571  014B  297C               	goto	i1l2054
  5572  014C  0875               	movf	timerInterrupt@i,w
  5573  014D  00F0               	movwf	??_timerInterrupt
  5574  014E  3001               	movlw	1
  5575  014F                     u121_25:	
  5576  014F  35F0               	lslf	??_timerInterrupt,f
  5577  0150  3EFF               	addlw	-1
  5578  0151  1D03               	skipz
  5579  0152  294F               	goto	u121_25
  5580  0153  3570               	lslf	??_timerInterrupt,w
  5581  0154  3E20               	addlw	(low (_longTimers| 0))& (0+255)
  5582  0155  0086               	movwf	6
  5583  0156  0187               	clrf	7
  5584  0157  0016               	moviw fsr1++
  5585  0158  3AFF               	xorlw	255
  5586  0159  00F1               	movwf	??_timerInterrupt+1
  5587  015A  0016               	moviw fsr1++
  5588  015B  3AFF               	xorlw	255
  5589  015C  04F1               	iorwf	??_timerInterrupt+1,f
  5590  015D  0016               	moviw fsr1++
  5591  015E  3AFF               	xorlw	255
  5592  015F  04F1               	iorwf	??_timerInterrupt+1,f
  5593  0160  0016               	moviw fsr1++
  5594  0161  3AFF               	xorlw	255
  5595  0162  04F1               	iorwf	??_timerInterrupt+1,f
  5596  0163  1903               	btfsc	3,2
  5597  0164  297C               	goto	i1l2054
  5598                           
  5599                           ;timer.c: 80: {
  5600                           ;timer.c: 81: longTimers[i]--;
  5601  0165  0875               	movf	timerInterrupt@i,w
  5602  0166  00F0               	movwf	??_timerInterrupt
  5603  0167  3001               	movlw	1
  5604  0168                     u123_25:	
  5605  0168  35F0               	lslf	??_timerInterrupt,f
  5606  0169  3EFF               	addlw	-1
  5607  016A  1D03               	skipz
  5608  016B  2968               	goto	u123_25
  5609  016C  3570               	lslf	??_timerInterrupt,w
  5610  016D  3E20               	addlw	(low (_longTimers| 0))& (0+255)
  5611  016E  0086               	movwf	6
  5612  016F  0187               	clrf	7
  5613  0170  3001               	movlw	1
  5614  0171  0281               	subwf	1,f
  5615  0172  3141               	addfsr 1,1
  5616  0173  3000               	movlw	0
  5617  0174  3B81               	subwfb	1,f
  5618  0175  3141               	addfsr 1,1
  5619  0176  3000               	movlw	0
  5620  0177  3B81               	subwfb	1,f
  5621  0178  3141               	addfsr 1,1
  5622  0179  3000               	movlw	0
  5623  017A  3B81               	subwfb	1,f
  5624  017B  317D               	addfsr 1,-3
  5625  017C                     i1l2054:	
  5626  017C  3001               	movlw	1
  5627  017D  00F0               	movwf	??_timerInterrupt
  5628  017E  0870               	movf	??_timerInterrupt,w
  5629  017F  07F5               	addwf	timerInterrupt@i,f
  5630  0180  292F               	goto	i1l2056
  5631  0181                     i1l2058:	
  5632                           
  5633                           ;timer.c: 82: }
  5634                           ;timer.c: 83: }
  5635                           ;timer.c: 86: systick++;
  5636  0181  3001               	movlw	1
  5637  0182  07F9               	addwf	_systick,f
  5638  0183  3000               	movlw	0
  5639  0184  3DFA               	addwfc	_systick+1,f
  5640                           
  5641                           ;timer.c: 89: TMR1 = 32000;
  5642  0185  307D               	movlw	125
  5643  0186  0020               	movlb	0	; select bank0
  5644  0187  0097               	movwf	23	;volatile
  5645  0188  3000               	movlw	0
  5646  0189  0096               	movwf	22	;volatile
  5647                           
  5648                           ;timer.c: 90: T1CONbits.TMR1ON = 1;
  5649  018A  1418               	bsf	24,0	;volatile
  5650                           
  5651                           ;timer.c: 91: PIR1bits.TMR1IF = 0;
  5652  018B  1011               	bcf	17,0	;volatile
  5653  018C  0008               	return
  5654  018D                     __end_of_timerInterrupt:	
  5655                           
  5656                           	psect	text54
  5657  0418                     __ptext54:	
  5658 ;; *************** function _timer2Interrupt *****************
  5659 ;; Defined at:
  5660 ;;		line 50 in file "../source/beeper.c"
  5661 ;; Parameters:    Size  Location     Type
  5662 ;;		None
  5663 ;; Auto vars:     Size  Location     Type
  5664 ;;  i               1    0        unsigned char 
  5665 ;; Return value:  Size  Location     Type
  5666 ;;                  1    wreg      void 
  5667 ;; Registers used:
  5668 ;;		wreg, status,2, status,0
  5669 ;; Tracked objects:
  5670 ;;		On entry : 0/0
  5671 ;;		On exit  : 0/0
  5672 ;;		Unchanged: 0/0
  5673 ;; Data sizes:     COMMON   BANK0   BANK1
  5674 ;;      Params:         0       0       0
  5675 ;;      Locals:         0       0       0
  5676 ;;      Temps:          1       0       0
  5677 ;;      Totals:         1       0       0
  5678 ;;Total ram usage:        1 bytes
  5679 ;; Hardware stack levels used:    1
  5680 ;; This function calls:
  5681 ;;		Nothing
  5682 ;; This function is called by:
  5683 ;;		_ISRCode
  5684 ;; This function uses a non-reentrant model
  5685 ;;
  5686                           
  5687                           
  5688                           ;psect for function _timer2Interrupt
  5689  0418                     _timer2Interrupt:	
  5690                           
  5691                           ;beeper.c: 52: unsigned char i;
  5692                           ;beeper.c: 54: if ( PIE1bits.TMR2IE && PIR1bits.TMR2IF )
  5693                           
  5694                           ;incstack = 0
  5695                           ; Regs used in _timer2Interrupt: [wreg+status,2+status,0]
  5696  0418  0021               	movlb	1	; select bank1
  5697  0419  1C91               	btfss	17,1	;volatile
  5698  041A  0008               	return
  5699  041B  0020               	movlb	0	; select bank0
  5700  041C  1C91               	btfss	17,1	;volatile
  5701  041D  0008               	return
  5702                           
  5703                           ;beeper.c: 55: {
  5704                           ;beeper.c: 56: T2CONbits.TMR2ON = 0;
  5705  041E  111C               	bcf	28,2	;volatile
  5706                           
  5707                           ;beeper.c: 58: if (beeperOn)
  5708  041F  083D               	movf	_beeperOn,w
  5709  0420  1903               	btfsc	3,2
  5710  0421  2C2E               	goto	i1l2076
  5711                           
  5712                           ;beeper.c: 59: {
  5713                           ;beeper.c: 60: LATAbits.LATA1 ^= 1;
  5714  0422  0022               	movlb	2	; select bank2
  5715  0423  0C0C               	rrf	12,w	;volatile
  5716  0424  3901               	andlw	1
  5717  0425  00F0               	movwf	??_timer2Interrupt
  5718  0426  3001               	movlw	1
  5719  0427  06F0               	xorwf	??_timer2Interrupt,f
  5720  0428  0DF0               	rlf	??_timer2Interrupt,f
  5721  0429  080C               	movf	12,w	;volatile
  5722  042A  0670               	xorwf	??_timer2Interrupt,w
  5723  042B  39FD               	andlw	-3
  5724  042C  0670               	xorwf	??_timer2Interrupt,w
  5725  042D  008C               	movwf	12	;volatile
  5726  042E                     i1l2076:	
  5727                           
  5728                           ;beeper.c: 61: }
  5729                           ;beeper.c: 62: T2CONbits.TMR2ON = 1;
  5730  042E  0020               	movlb	0	; select bank0
  5731  042F  151C               	bsf	28,2	;volatile
  5732                           
  5733                           ;beeper.c: 63: PIR1bits.TMR2IF = 0;
  5734  0430  1091               	bcf	17,1	;volatile
  5735  0431  0008               	return
  5736  0432                     __end_of_timer2Interrupt:	
  5737                           
  5738                           	psect	text55
  5739  02D4                     __ptext55:	
  5740 ;; *************** function _IOCInterrupt *****************
  5741 ;; Defined at:
  5742 ;;		line 51 in file "../source/eventhandler.c"
  5743 ;; Parameters:    Size  Location     Type
  5744 ;;		None
  5745 ;; Auto vars:     Size  Location     Type
  5746 ;;		None
  5747 ;; Return value:  Size  Location     Type
  5748 ;;                  1    wreg      void 
  5749 ;; Registers used:
  5750 ;;		wreg, fsr1l, fsr1h, status,2, status,0, pclath, cstack
  5751 ;; Tracked objects:
  5752 ;;		On entry : 0/0
  5753 ;;		On exit  : 0/0
  5754 ;;		Unchanged: 0/0
  5755 ;; Data sizes:     COMMON   BANK0   BANK1
  5756 ;;      Params:         0       0       0
  5757 ;;      Locals:         0       0       0
  5758 ;;      Temps:          0       0       0
  5759 ;;      Totals:         0       0       0
  5760 ;;Total ram usage:        0 bytes
  5761 ;; Hardware stack levels used:    1
  5762 ;; Hardware stack levels required when called:    1
  5763 ;; This function calls:
  5764 ;;		i1_timerSet
  5765 ;; This function is called by:
  5766 ;;		_ISRCode
  5767 ;; This function uses a non-reentrant model
  5768 ;;
  5769                           
  5770                           
  5771                           ;psect for function _IOCInterrupt
  5772  02D4                     _IOCInterrupt:	
  5773                           
  5774                           ;eventhandler.c: 53: if ( INTCONbits.IOCIF == 1)
  5775                           
  5776                           ;incstack = 0
  5777                           ; Regs used in _IOCInterrupt: [wreg+fsr1l+fsr1h+status,2+status,0+pclath+cstack]
  5778  02D4  1C0B               	btfss	11,0	;volatile
  5779  02D5  0008               	return
  5780                           
  5781                           ;eventhandler.c: 54: {
  5782                           ;eventhandler.c: 56: if (IOCAFbits.IOCAF3 == 1)
  5783  02D6  0027               	movlb	7	; select bank7
  5784  02D7  1D93               	btfss	19,3	;volatile
  5785  02D8  2AE1               	goto	i1l1980
  5786                           
  5787                           ;eventhandler.c: 57: {
  5788                           ;eventhandler.c: 61: timerSet( buzzerTimer, 2 );
  5789  02D9  3002               	movlw	2
  5790  02DA  00F0               	movwf	i1timerSet@duration
  5791  02DB  3000               	movlw	0
  5792  02DC  00F1               	movwf	i1timerSet@duration+1
  5793  02DD  0877               	movf	_buzzerTimer,w
  5794  02DE  251E               	fcall	i1_timerSet
  5795                           
  5796                           ;eventhandler.c: 63: IOCAFbits.IOCAF3 = 0;
  5797  02DF  0027               	movlb	7	; select bank7
  5798  02E0  1193               	bcf	19,3	;volatile
  5799  02E1                     i1l1980:	
  5800                           
  5801                           ;eventhandler.c: 64: }
  5802                           ;eventhandler.c: 65: if (IOCAFbits.IOCAF2 == 1)
  5803  02E1  1D13               	btfss	19,2	;volatile
  5804  02E2  2AF5               	goto	i1l1992
  5805                           
  5806                           ;eventhandler.c: 66: {
  5807                           ;eventhandler.c: 67: if (PORTAbits.RA2 == 1)
  5808  02E3  0020               	movlb	0	; select bank0
  5809  02E4  1D0C               	btfss	12,2	;volatile
  5810  02E5  2AED               	goto	i1l127
  5811                           
  5812                           ;eventhandler.c: 68: {
  5813                           ;eventhandler.c: 69: greenWentHigh.eventFlag = !0;
  5814  02E6  01B0               	clrf	_greenWentHigh
  5815  02E7  0AB0               	incf	_greenWentHigh,f
  5816                           
  5817                           ;eventhandler.c: 70: greenWentHigh.eventTime = systick;
  5818  02E8  087A               	movf	_systick+1,w
  5819  02E9  00B2               	movwf	_greenWentHigh+2
  5820  02EA  0879               	movf	_systick,w
  5821  02EB  00B1               	movwf	_greenWentHigh+1
  5822                           
  5823                           ;eventhandler.c: 71: }
  5824  02EC  2AF3               	goto	i1l1990
  5825  02ED                     i1l127:	
  5826                           
  5827                           ;eventhandler.c: 72: else
  5828                           ;eventhandler.c: 73: {
  5829                           ;eventhandler.c: 74: greenWentLow.eventFlag = !0;
  5830  02ED  01AD               	clrf	_greenWentLow
  5831  02EE  0AAD               	incf	_greenWentLow,f
  5832                           
  5833                           ;eventhandler.c: 75: greenWentLow.eventTime = systick;
  5834  02EF  087A               	movf	_systick+1,w
  5835  02F0  00AF               	movwf	_greenWentLow+2
  5836  02F1  0879               	movf	_systick,w
  5837  02F2  00AE               	movwf	_greenWentLow+1
  5838  02F3                     i1l1990:	
  5839                           
  5840                           ;eventhandler.c: 76: }
  5841                           ;eventhandler.c: 77: IOCAFbits.IOCAF2 = 0;
  5842  02F3  0027               	movlb	7	; select bank7
  5843  02F4  1113               	bcf	19,2	;volatile
  5844  02F5                     i1l1992:	
  5845                           
  5846                           ;eventhandler.c: 78: }
  5847                           ;eventhandler.c: 79: if (IOCAFbits.IOCAF4 == 1)
  5848  02F5  1E13               	btfss	19,4	;volatile
  5849  02F6  0008               	return
  5850                           
  5851                           ;eventhandler.c: 80: {
  5852                           ;eventhandler.c: 81: if (PORTAbits.RA4 == 1)
  5853  02F7  0020               	movlb	0	; select bank0
  5854  02F8  1E0C               	btfss	12,4	;volatile
  5855  02F9  2B01               	goto	i1l130
  5856                           
  5857                           ;eventhandler.c: 82: {
  5858                           ;eventhandler.c: 83: redWentHigh.eventFlag = !0;
  5859  02FA  01AA               	clrf	_redWentHigh
  5860  02FB  0AAA               	incf	_redWentHigh,f
  5861                           
  5862                           ;eventhandler.c: 84: redWentHigh.eventTime = systick;
  5863  02FC  087A               	movf	_systick+1,w
  5864  02FD  00AC               	movwf	_redWentHigh+2
  5865  02FE  0879               	movf	_systick,w
  5866  02FF  00AB               	movwf	_redWentHigh+1
  5867                           
  5868                           ;eventhandler.c: 85: }
  5869  0300  2B07               	goto	i1l2002
  5870  0301                     i1l130:	
  5871                           
  5872                           ;eventhandler.c: 86: else
  5873                           ;eventhandler.c: 87: {
  5874                           ;eventhandler.c: 88: redWentLow.eventFlag = !0;
  5875  0301  01A7               	clrf	_redWentLow
  5876  0302  0AA7               	incf	_redWentLow,f
  5877                           
  5878                           ;eventhandler.c: 89: redWentLow.eventTime = systick;
  5879  0303  087A               	movf	_systick+1,w
  5880  0304  00A9               	movwf	_redWentLow+2
  5881  0305  0879               	movf	_systick,w
  5882  0306  00A8               	movwf	_redWentLow+1
  5883  0307                     i1l2002:	
  5884                           
  5885                           ;eventhandler.c: 90: }
  5886                           ;eventhandler.c: 91: IOCAFbits.IOCAF4 = 0;
  5887  0307  0027               	movlb	7	; select bank7
  5888  0308  1213               	bcf	19,4	;volatile
  5889  0309  0008               	return
  5890  030A                     __end_of_IOCInterrupt:	
  5891                           
  5892                           	psect	text56
  5893  051E                     __ptext56:	
  5894 ;; *************** function i1_timerSet *****************
  5895 ;; Defined at:
  5896 ;;		line 123 in file "../source/timer.c"
  5897 ;; Parameters:    Size  Location     Type
  5898 ;;  index           1    wreg     unsigned char 
  5899 ;;  duration        2    0[COMMON] unsigned int 
  5900 ;; Auto vars:     Size  Location     Type
  5901 ;;  index           1    2[COMMON] unsigned char 
  5902 ;; Return value:  Size  Location     Type
  5903 ;;                  1    wreg      void 
  5904 ;; Registers used:
  5905 ;;		wreg, fsr1l, fsr1h, status,2, status,0
  5906 ;; Tracked objects:
  5907 ;;		On entry : 0/0
  5908 ;;		On exit  : 0/0
  5909 ;;		Unchanged: 0/0
  5910 ;; Data sizes:     COMMON   BANK0   BANK1
  5911 ;;      Params:         2       0       0
  5912 ;;      Locals:         1       0       0
  5913 ;;      Temps:          0       0       0
  5914 ;;      Totals:         3       0       0
  5915 ;;Total ram usage:        3 bytes
  5916 ;; Hardware stack levels used:    1
  5917 ;; This function calls:
  5918 ;;		Nothing
  5919 ;; This function is called by:
  5920 ;;		_IOCInterrupt
  5921 ;; This function uses a non-reentrant model
  5922 ;;
  5923                           
  5924                           
  5925                           ;psect for function i1_timerSet
  5926  051E                     i1_timerSet:	
  5927                           
  5928                           ;incstack = 0
  5929                           ; Regs used in i1_timerSet: [wreg+fsr1l+fsr1h+status,2+status,0]
  5930                           ;i1timerSet@index stored from wreg
  5931  051E  00F2               	movwf	i1timerSet@index
  5932                           
  5933                           ;timer.c: 125: if ( index < numTimers )
  5934  051F  087C               	movf	_numTimers,w
  5935  0520  0272               	subwf	i1timerSet@index,w
  5936  0521  1803               	skipnc
  5937  0522  0008               	return
  5938                           
  5939                           ;timer.c: 126: {
  5940                           ;timer.c: 127: timers[index] = duration;
  5941  0523  3572               	lslf	i1timerSet@index,w
  5942  0524  3EA0               	addlw	(low (_timers| 0))& (0+255)
  5943  0525  0086               	movwf	6
  5944  0526  0187               	clrf	7
  5945  0527  0870               	movf	i1timerSet@duration,w
  5946  0528  3FC0               	movwi [0]fsr1
  5947  0529  0871               	movf	i1timerSet@duration+1,w
  5948  052A  3FC1               	movwi [1]fsr1
  5949  052B  0008               	return
  5950  052C                     __end_ofi1_timerSet:	
  5951  007E                     btemp	set	126	;btemp
  5952  007E                     int$flags	set	126
  5953  007E                     wtemp0	set	126


Data Sizes:
    Strings     0
    Constant    200
    Data        4
    BSS         67
    Persistent  1
    Stack       0

Auto Spaces:
    Space          Size  Autos    Used
    COMMON           14      7      13
    BANK0            80     18      64
    BANK1            32      0      20

Pointer List with Targets:

    runStateTable	const PTR FTN()void [7][4] size(2) Largest target is 1
		 -> runS4_Error(), runS4_GreenSteadyLow(), runS4_Timeout(), runS3_GreenFlashing(), 
		 -> runS3_Error(), runS3_Timeout(), runS2_BeepReceived(), runS2_Error(), 
		 -> runS2_Timeout(), runS1_Error(), runS1_Initialised(), runS1_Timeout(), 
		 -> run_NoAction(), 

    initStateTable	const PTR FTN()void [8][9] size(2) Largest target is 1
		 -> initS8_bothLow(), initS7_bothHigh(), initS6_redLow(), initS5_redHigh(), 
		 -> initS4_greenLow(), initS3_greenHigh(), init_Restart(), initS2_Timeout(), 
		 -> initS1_Timeout(), init_NoAction(), 


Critical Paths under _main in COMMON

    None.

Critical Paths under _ISRCode in COMMON

    _ISRCode->_timerInterrupt
    _IOCInterrupt->i1_timerSet

Critical Paths under _main in BANK0

    _main->_eventHandlerService
    _initialise->_eventHandlerInit
    _eventHandlerInit->_longTimerGet
    _longTimerGet->_longTimerLock
    _beeperInit->_timerGet
    _beeperInit->_timerSet
    _LEDInit->_timerGet
    _LEDInit->_timerSet
    _timerGet->_timerLock
    _eventHandlerService->_getInitEvent
    _runS1_Initialised->_beepRepeatedly
    _init_Restart->_timerSet
    _initS8_bothLow->_timerLock
    _initS7_bothHigh->_timerSet
    _initS6_redLow->_timerSet
    _initS5_redHigh->_timerSet
    _initS4_greenLow->_timerSet
    _initS3_greenHigh->_timerSet
    _initS2_Timeout->_timerLock
    _initS1_Timeout->_timerSet
    _getRunEvent->_longTimerRead
    _getInitEvent->_timerRead
    _beeperService->_timerRead
    _LEDService->_timerRead

Critical Paths under _ISRCode in BANK0

    None.

Critical Paths under _main in BANK1

    None.

Critical Paths under _ISRCode in BANK1

    None.

Call Graph Tables:

 ---------------------------------------------------------------------------------
 (Depth) Function   	        Calls       Base Space   Used Autos Params    Refs
 ---------------------------------------------------------------------------------
 (0) _main                                                 0     0      0   17227
                         _LEDService
                      _beeperService
                _eventHandlerService
                         _initialise
                       _kickWatchDog
 ---------------------------------------------------------------------------------
 (1) _kickWatchDog                                         0     0      0       0
 ---------------------------------------------------------------------------------
 (1) _initialise                                           0     0      0    4921
                            _LEDInit
                     _beepRepeatedly
                         _beeperInit
                   _eventHandlerInit
                           _flashLED
                       _hardwareInit
                      _initInterrupt
                          _timerInit
 ---------------------------------------------------------------------------------
 (2) _timerInit                                            0     0      0       0
 ---------------------------------------------------------------------------------
 (2) _initInterrupt                                        0     0      0       0
 ---------------------------------------------------------------------------------
 (2) _hardwareInit                                         0     0      0       0
 ---------------------------------------------------------------------------------
 (2) _flashLED                                             2     0      2      96
                                              0 BANK0      2     0      2
 ---------------------------------------------------------------------------------
 (2) _eventHandlerInit                                     2     2      0    2152
                                              4 BANK0      2     2      0
                   _initIOCInterrupt
                       _init_Restart
                       _longTimerGet
                           _timerGet
                           _timerSet
 ---------------------------------------------------------------------------------
 (3) _longTimerGet                                         2     2      0      89
                                              2 BANK0      2     2      0
                      _longTimerLock
 ---------------------------------------------------------------------------------
 (3) _initIOCInterrupt                                     0     0      0       0
 ---------------------------------------------------------------------------------
 (2) _beeperInit                                           1     1      0    1095
                                              3 BANK0      1     1      0
                         _timer2Init
                           _timerGet
                           _timerSet
 ---------------------------------------------------------------------------------
 (3) _timer2Init                                           0     0      0       0
 ---------------------------------------------------------------------------------
 (2) _LEDInit                                              1     1      0    1095
                                              3 BANK0      1     1      0
                           _timerGet
                           _timerSet
 ---------------------------------------------------------------------------------
 (3) _timerGet                                             2     2      0     127
                                              1 BANK0      2     2      0
                          _timerLock
 ---------------------------------------------------------------------------------
 (1) _eventHandlerService                                  8     8      0   10172
                                             10 BANK0      8     8      0
                             ___wmul
                       _getInitEvent
                        _getRunEvent
                     _initS1_Timeout *
                     _initS2_Timeout *
                   _initS3_greenHigh *
                    _initS4_greenLow *
                     _initS5_redHigh *
                      _initS6_redLow *
                    _initS7_bothHigh *
                     _initS8_bothLow *
                      _init_NoAction *
                       _init_Restart *
                        _runS1_Error *
                  _runS1_Initialised *
                      _runS1_Timeout *
                 _runS2_BeepReceived *
                        _runS2_Error *
                      _runS2_Timeout *
                        _runS3_Error *
                _runS3_GreenFlashing *
                      _runS3_Timeout *
                        _runS4_Error *
               _runS4_GreenSteadyLow *
                      _runS4_Timeout *
                       _run_NoAction *
                          _timerRead
                           _timerSet
 ---------------------------------------------------------------------------------
 (2) _run_NoAction                                         0     0      0       0
 ---------------------------------------------------------------------------------
 (2) _runS4_Timeout                                        0     0      0       0
 ---------------------------------------------------------------------------------
 (2) _runS4_GreenSteadyLow                                 0     0      0       0
 ---------------------------------------------------------------------------------
 (2) _runS4_Error                                          0     0      0       0
 ---------------------------------------------------------------------------------
 (2) _runS3_Timeout                                        0     0      0       0
 ---------------------------------------------------------------------------------
 (2) _runS3_GreenFlashing                                  0     0      0       0
 ---------------------------------------------------------------------------------
 (2) _runS3_Error                                          0     0      0       0
 ---------------------------------------------------------------------------------
 (2) _runS2_Timeout                                        0     0      0       0
 ---------------------------------------------------------------------------------
 (2) _runS2_Error                                          0     0      0       0
 ---------------------------------------------------------------------------------
 (2) _runS2_BeepReceived                                   0     0      0       0
 ---------------------------------------------------------------------------------
 (2) _runS1_Timeout                                        0     0      0       0
 ---------------------------------------------------------------------------------
 (2) _runS1_Initialised                                    0     0      0     483
                     _beepRepeatedly
 ---------------------------------------------------------------------------------
 (2) _runS1_Error                                          0     0      0       0
 ---------------------------------------------------------------------------------
 (3) _init_Restart                                         0     0      0     968
                           _timerSet
 ---------------------------------------------------------------------------------
 (2) _init_NoAction                                        0     0      0       0
 ---------------------------------------------------------------------------------
 (2) _initS8_bothLow                                       1     1      0     545
                                              1 BANK0      1     1      0
                     _beepRepeatedly
                          _timerLock
 ---------------------------------------------------------------------------------
 (2) _beepRepeatedly                                       4     0      4     483
                                              0 BANK0      4     0      4
 ---------------------------------------------------------------------------------
 (2) _initS7_bothHigh                                      1     1      0     968
                                              3 BANK0      1     1      0
                           _timerSet
 ---------------------------------------------------------------------------------
 (2) _initS6_redLow                                        1     1      0     968
                                              3 BANK0      1     1      0
                           _timerSet
 ---------------------------------------------------------------------------------
 (2) _initS5_redHigh                                       1     1      0     968
                                              3 BANK0      1     1      0
                           _timerSet
 ---------------------------------------------------------------------------------
 (2) _initS4_greenLow                                      1     1      0     968
                                              3 BANK0      1     1      0
                           _timerSet
 ---------------------------------------------------------------------------------
 (2) _initS3_greenHigh                                     1     1      0     968
                                              3 BANK0      1     1      0
                           _timerSet
 ---------------------------------------------------------------------------------
 (2) _initS2_Timeout                                       1     1      0     181
                                              1 BANK0      1     1      0
                       _longTimerSet
                          _timerLock
 ---------------------------------------------------------------------------------
 (3) _longTimerSet                                         6     2      4     119
                                              0 BANK0      6     2      4
 ---------------------------------------------------------------------------------
 (2) _initS1_Timeout                                       0     0      0     968
                           _timerSet
 ---------------------------------------------------------------------------------
 (2) _getRunEvent                                          0     0      0     273
                           _clearLED
                      _longTimerLock
                      _longTimerRead
                             _setLED
                          _timerLock
                          _timerRead
 ---------------------------------------------------------------------------------
 (3) _setLED                                               0     0      0       0
 ---------------------------------------------------------------------------------
 (3) _longTimerRead                                       10     6      4      68
                                              0 BANK0     10     6      4
 ---------------------------------------------------------------------------------
 (4) _longTimerLock                                        2     2      0      44
                                              0 BANK0      2     2      0
 ---------------------------------------------------------------------------------
 (3) _clearLED                                             0     0      0       0
 ---------------------------------------------------------------------------------
 (2) _getInitEvent                                         4     4      0     161
                                              6 BANK0      4     4      0
                          _timerLock
                          _timerRead
 ---------------------------------------------------------------------------------
 (4) _timerLock                                            1     1      0      62
                                              0 BANK0      1     1      0
 ---------------------------------------------------------------------------------
 (2) ___wmul                                               6     2      4     686
                                              0 BANK0      6     2      4
 ---------------------------------------------------------------------------------
 (1) _beeperService                                        0     0      0    1067
                          _timerRead
                           _timerSet
 ---------------------------------------------------------------------------------
 (1) _LEDService                                           0     0      0    1067
                          _timerRead
                           _timerSet
 ---------------------------------------------------------------------------------
 (3) _timerSet                                             3     1      2     968
                                              0 BANK0      3     1      2
 ---------------------------------------------------------------------------------
 (2) _timerRead                                            6     3      3      99
                                              0 BANK0      6     3      3
 ---------------------------------------------------------------------------------
 Estimated maximum stack depth 4
 ---------------------------------------------------------------------------------
 (Depth) Function   	        Calls       Base Space   Used Autos Params    Refs
 ---------------------------------------------------------------------------------
 (5) _ISRCode                                              1     1      0     272
                                              6 COMMON     1     1      0
                       _IOCInterrupt
                    _timer2Interrupt
                     _timerInterrupt
 ---------------------------------------------------------------------------------
 (6) _timerInterrupt                                       6     6      0     180
                                              0 COMMON     6     6      0
 ---------------------------------------------------------------------------------
 (6) _timer2Interrupt                                      2     2      0       0
                                              0 COMMON     1     1      0
 ---------------------------------------------------------------------------------
 (6) _IOCInterrupt                                         0     0      0      92
                         i1_timerSet
 ---------------------------------------------------------------------------------
 (7) i1_timerSet                                           3     1      2      92
                                              0 COMMON     3     1      2
 ---------------------------------------------------------------------------------
 Estimated maximum stack depth 7
 ---------------------------------------------------------------------------------

 Call Graph Graphs:

 _main (ROOT)
   _LEDService
     _timerRead
     _timerSet
   _beeperService
     _timerRead
     _timerSet
   _eventHandlerService
     ___wmul
     _getInitEvent
       _timerLock
       _timerRead
     _getRunEvent
       _clearLED
       _longTimerLock
       _longTimerRead
       _setLED
       _timerLock
       _timerRead
     _initS1_Timeout *
       _timerSet
     _initS2_Timeout *
       _longTimerSet
       _timerLock
     _initS3_greenHigh *
       _timerSet
     _initS4_greenLow *
       _timerSet
     _initS5_redHigh *
       _timerSet
     _initS6_redLow *
       _timerSet
     _initS7_bothHigh *
       _timerSet
     _initS8_bothLow *
       _beepRepeatedly
       _timerLock
     _init_NoAction *
     _init_Restart *
       _timerSet
     _runS1_Error *
     _runS1_Initialised *
       _beepRepeatedly
     _runS1_Timeout *
     _runS2_BeepReceived *
     _runS2_Error *
     _runS2_Timeout *
     _runS3_Error *
     _runS3_GreenFlashing *
     _runS3_Timeout *
     _runS4_Error *
     _runS4_GreenSteadyLow *
     _runS4_Timeout *
     _run_NoAction *
     _timerRead *
     _timerSet *
   _initialise
     _LEDInit
       _timerGet
         _timerLock
       _timerSet
     _beepRepeatedly
     _beeperInit
       _timer2Init
       _timerGet
         _timerLock
       _timerSet
     _eventHandlerInit
       _initIOCInterrupt
       _init_Restart
         _timerSet
       _longTimerGet
         _longTimerLock
       _timerGet
         _timerLock
       _timerSet
     _flashLED
     _hardwareInit
     _initInterrupt
     _timerInit
   _kickWatchDog

 _ISRCode (ROOT)
   _IOCInterrupt
     i1_timerSet
   _timer2Interrupt
   _timerInterrupt

 Address spaces:
Name               Size   Autos  Total    Cost      Usage
BIGRAM              70      0       0       0        0.0%
EEDATA             100      0       0       0        0.0%
NULL                 0      0       0       0        0.0%
CODE                 0      0       0       0        0.0%
BITCOMMON            E      0       0       1        0.0%
BITSFR0              0      0       0       1        0.0%
SFR0                 0      0       0       1        0.0%
COMMON               E      7       D       2       92.9%
BITSFR1              0      0       0       2        0.0%
SFR1                 0      0       0       2        0.0%
BITSFR2              0      0       0       3        0.0%
SFR2                 0      0       0       3        0.0%
STACK                0      0       0       3        0.0%
BITSFR3              0      0       0       4        0.0%
SFR3                 0      0       0       4        0.0%
ABS                  0      0      61       4        0.0%
BITBANK0            50      0       0       5        0.0%
BITSFR4              0      0       0       5        0.0%
SFR4                 0      0       0       5        0.0%
BANK0               50     12      40       6       80.0%
BITSFR5              0      0       0       6        0.0%
SFR5                 0      0       0       6        0.0%
BITBANK1            20      0       0       7        0.0%
BITSFR6              0      0       0       7        0.0%
SFR6                 0      0       0       7        0.0%
BANK1               20      0      14       8       62.5%
BITSFR7              0      0       0       8        0.0%
SFR7                 0      0       0       8        0.0%
BITSFR8              0      0       0       9        0.0%
SFR8                 0      0       0       9        0.0%
DATA                 0      0      61       9        0.0%
BITSFR9              0      0       0      10        0.0%
SFR9                 0      0       0      10        0.0%
BITSFR10             0      0       0      11        0.0%
SFR10                0      0       0      11        0.0%
BITSFR11             0      0       0      12        0.0%
SFR11                0      0       0      12        0.0%
BITSFR12             0      0       0      13        0.0%
SFR12                0      0       0      13        0.0%
BITSFR13             0      0       0      14        0.0%
SFR13                0      0       0      14        0.0%
BITSFR14             0      0       0      15        0.0%
SFR14                0      0       0      15        0.0%
BITSFR15             0      0       0      16        0.0%
SFR15                0      0       0      16        0.0%
BITSFR16             0      0       0      17        0.0%
SFR16                0      0       0      17        0.0%
BITSFR17             0      0       0      18        0.0%
SFR17                0      0       0      18        0.0%
BITSFR18             0      0       0      19        0.0%
SFR18                0      0       0      19        0.0%
BITSFR19             0      0       0      20        0.0%
SFR19                0      0       0      20        0.0%
BITSFR20             0      0       0      21        0.0%
SFR20                0      0       0      21        0.0%
BITSFR21             0      0       0      22        0.0%
SFR21                0      0       0      22        0.0%
BITSFR22             0      0       0      23        0.0%
SFR22                0      0       0      23        0.0%
BITSFR23             0      0       0      24        0.0%
SFR23                0      0       0      24        0.0%
BITSFR24             0      0       0      25        0.0%
SFR24                0      0       0      25        0.0%
BITSFR25             0      0       0      26        0.0%
SFR25                0      0       0      26        0.0%
BITSFR26             0      0       0      27        0.0%
SFR26                0      0       0      27        0.0%
BITSFR27             0      0       0      28        0.0%
SFR27                0      0       0      28        0.0%
BITSFR28             0      0       0      29        0.0%
SFR28                0      0       0      29        0.0%
BITSFR29             0      0       0      30        0.0%
SFR29                0      0       0      30        0.0%
BITSFR30             0      0       0      31        0.0%
SFR30                0      0       0      31        0.0%
BITSFR31             0      0       0      32        0.0%
SFR31                0      0       0      32        0.0%


Microchip Technology PIC Macro Assembler V1.41 build -162212810 
Symbol Table                                                                                   Fri Mar 03 08:26:28 2017

                  __CFG_CP$OFF 0000            ___wmul@multiplicand 004B                    ?_LEDService 0070  
                          l140 025D                            l142 0293                            l362 03DA  
                          l608 0349                            l696 03B6                            _PR2 001B  
                 __CFG_CPD$OFF 0000                            u725 0407                            u755 03ED  
                          u785 0374                _timer2Interrupt 0418                   __CFG_BORV$LO 0000  
             _initS3_greenHigh 0560                            wreg 0009                  _runStateTable 00BF  
      __size_of_initS1_Timeout 000D        __size_of_initS2_Timeout 0014         __size_of_initS6_redLow 000D  
                 __CFG_LVP$OFF 0000                __end_of_LEDInit 0586                           l2202 046D  
                         l2304 01FD                           l2322 021E                           l2250 0199  
                         l2316 021B                           l2262 01B8                           l2350 02BC  
                         l2192 048A                           l2280 01D9                           l2336 02A7  
                         l2346 02B8                           l2522 0292                           l2514 025C  
                         l2268 01BB                           l2356 02BE                           l2534 03DD  
                         l2286 01DC                           l2366 02CB                           l1728 0384  
                         l2376 02D2                           l2570 035C                           l2562 034D  
                         l2298 01FA                           l2492 03B0                           l2574 05AE  
               ??_hardwareInit 0049                   __CFG_WDTE$ON 0000                           u1605 03B7  
                         u1615 03BC                           _TMR1 0016                __end_of_ISRCode 0011  
                 __CFG_WRT$OFF 0000       __end_of_initIOCInterrupt 059C                           _main 05AD  
                ?_kickWatchDog 0070                           fsr0h 0005                           fsr1h 0007  
                         indf0 0000                           fsr0l 0004                           indf1 0001  
                         fsr1l 0006                           btemp 007E                           _ttog 0044  
                __CFG_BOREN$ON 0000                           start 0011                  __CFG_IESO$OFF 0000  
                   i1_timerSet 051E    __end_of_eventHandlerService 029B               ??_timerInterrupt 0070  
      __size_of_initS5_redHigh 000D     __end_of_runS2_BeepReceived 05CB        __size_of_initS8_bothLow 0018  
                __CFG_PLLEN$ON 0000              ?_eventHandlerInit 0070                          ?_main 0070  
                        i1l130 0301                          i1l127 02ED             ??_eventHandlerInit 004D  
               __CFG_FCMEN$OFF 0000               ??_beepRepeatedly 004D                i1timerSet@index 0072  
                        pclath 000A                 ??_kickWatchDog 0049                  ?_IOCInterrupt 0070  
         _runS4_GreenSteadyLow 05C5                          status 0003                          wtemp0 007E  
          __size_of_LEDService 001B       __size_of_initS4_greenLow 000D                  _greenWentHigh 0030  
               __CFG_MCLRE$OFF 0000         __size_of_init_NoAction 0001                __initialization 0012  
                _initS6_redLow 0539         __size_of_initInterrupt 0003           __end_of_getInitEvent 0220  
                 __end_of_main 05B3        __end_of_timer2Interrupt 0432       __size_of_initS7_bothHigh 000D  
                       ??_main 005B                      ??_LEDInit 004C                  ?_init_Restart 0070  
            _eventHandlerTimer 005F                      ??_ISRCode 0076    __end_of_runS3_GreenFlashing 05C8  
                       i1l2002 0307                         i1l2042 0129                         i1l2034 0106  
                       i1l2044 0107                         i1l2054 017C                         i1l2046 012E  
                       i1l2056 012F                         i1l2058 0181                         i1l2076 042E  
                       u121_25 014F                         i1l1980 02E1                         u123_25 0168  
                       i1l1990 02F3                         i1l1992 02F5                         u119_25 0136  
               ??_IOCInterrupt 0073          ?_runS4_GreenSteadyLow 0070           __size_of_getRunEvent 0039  
             __end_of_clearLED 05BF                   ?_runS1_Error 0070                   ?_runS2_Error 0070  
               __CFG_PWRTE$OFF 0000                    ?i1_timerSet 0070                   ?_runS3_Error 0070  
                 ?_runS4_Error 0070               __end_of_flashLED 0591                 ?_initS6_redLow 0070  
                       _nBeeps 0033                         ___wmul 03AD                         _setLED 05B7  
         __end_of_hardwareInit 03AD                         _timers 00A0                 ??_init_Restart 004C  
                 _beeperToggle 003F                 _initS1_Timeout 056D               __end_of_timerGet 051E  
             __end_of_timerSet 0502                 _initS2_Timeout 048F                  _init_NoAction 05D0  
                _initInterrupt 05BF          __end_of_runS1_Timeout 05CF        __end_of__initialization 002C  
        __end_of_runS2_Timeout 05CD          __end_of_runS3_Timeout 05CA          __end_of_runS4_Timeout 05C7  
     __end_of_initS3_greenHigh 056D                  ?_longTimerGet 0070                  ?_longTimerSet 0049  
               _initS5_redHigh 0546                 __pcstackCOMMON 0070                   __pidataBANK0 05B3  
               _initS8_bothLow 0432               ?_timer2Interrupt 0070              ??_initS4_greenLow 004C  
       __end_of_initS1_Timeout 057A                   ??_LEDService 004F           __end_of_kickWatchDog 05C4  
       __end_of_initS2_Timeout 04A3                 ?_init_NoAction 0070              ??_initS7_bothHigh 004C  
               ?_initInterrupt 0070            __size_ofi1_timerSet 000E                     _beeperInit 04C6  
       ??_runS4_GreenSteadyLow 0049                     __pbssBANK0 0020                     __pbssBANK1 00A0  
            ?_initIOCInterrupt 0070          __size_of_getInitEvent 0093                ??_initS6_redLow 004C  
       __end_of_initS5_redHigh 0553                     _delayTimer 0035             ??_initIOCInterrupt 0049  
           __end_of_LEDService 03E4                 ??_longTimerGet 004B                 ??_longTimerSet 004D  
                   __pmaintext 05AD         __end_of_initS8_bothLow 044A                        ?___wmul 0049  
                   __pintentry 0004                        ?_setLED 0070         __size_of_beeperService 002B  
         __end_of_IOCInterrupt 030A                ?_initS1_Timeout 0070                ?_initS2_Timeout 0070  
           __size_of_timerInit 0012             __size_of_timerRead 0017             __size_of_timerLock 000F  
                      _LEDInit 057A              _runS1_Initialised 059C                      ?_clearLED 0070  
                      _ISRCode 0004             _runS2_BeepReceived 05CA              longTimerSet@index 004E  
           ?_runS1_Initialised 0070                      ?_flashLED 0049         __size_of_longTimerRead 002A  
       __size_of_longTimerLock 001A                   _getInitEvent 018D      __size_of_eventHandlerInit 002E  
          ?_runS2_BeepReceived 0070            ??_runS1_Initialised 004D                ?_initS5_redHigh 0070  
         __end_of_init_Restart 04C6          __size_of_hardwareInit 0020                ?_initS8_bothLow 0070  
                    ?_timerGet 0070           __size_of_runS1_Error 0001                      ?_timerSet 0049  
         __size_of_runS2_Error 0001           __size_of_runS3_Error 0001           __size_of_runS4_Error 0001  
              __size_of___wmul 001C                __CFG_STVREN$OFF 0000                     _redWentLow 0027  
              __size_of_setLED 0004           ??_runS2_BeepReceived 0049                     _initialise 044A  
          longTimerRead@result 004E   __size_of_eventHandlerService 007B                        __ptext1 05C2  
                      __ptext2 044A                        __ptext3 04A3                        __ptext4 05BF  
                      __ptext5 038D                        __ptext6 0586                        __ptext7 030A  
                      __ptext8 0502                        __ptext9 0591      __end_of_runS1_Initialised 05A7  
              ??_init_NoAction 0049                      _T1CONbits 0018                ??_initInterrupt 0049  
                    _T2CONbits 001C                     ??_clearLED 0049                      _IOCAFbits 0393  
                    _IOCANbits 0392                      _IOCAPbits 0391                     _longTimers 0020  
                   ??_flashLED 004B                    ?_beeperInit 0070                        clrloop0 05A8  
         end_of_initialization 002C                        _systick 0079                  _beeperService 0338  
                 _hardwareInit 038D                _repeatedBeeping 003E              __end_of_timerInit 04B5  
            __end_of_timerRead 048F              __end_of_timerLock 04F3                   ??i1_timerSet 0072  
                   _timer2Init 04D5                     ??_timerGet 004A                  _longTimerRead 0363  
                _longTimerLock 03FE                     ??_timerSet 004B          __size_of_kickWatchDog 0002  
                 __pstringtext 002F                     _runSMTimer 0039                      _PORTAbits 000C  
      __size_of_timerInterrupt 0096               __CFG_FOSC$INTOSC 0000                      _TRISAbits 008C  
         __end_of_longTimerGet 0510           __end_of_longTimerSet 03FE             __end_ofi1_timerSet 052C  
                ??_getRunEvent 0053                  ?_run_NoAction 0070                 ?_beeperService 0070  
 __size_of_runS3_GreenFlashing 0001                   _kickWatchDog 05C2                _initS4_greenLow 0553  
      __size_of_beepRepeatedly 0017                 ?_longTimerRead 0049                 ?_longTimerLock 0070  
            ?_initS3_greenHigh 0070          __size_of_IOCInterrupt 0036                 _initStateTable 002F  
              _initS7_bothHigh 052C             ??_initS3_greenHigh 004C            __size_of_beeperInit 000F  
               __end_of___wmul 03C9                    ?_initialise 0070                 __end_of_setLED 05BB  
   __size_of_runS1_Initialised 000B          __end_of_runStateTable 00F7            start_initialization 0012  
                 _greenWentLow 002D                 ??_run_NoAction 0049          __size_of_init_Restart 0011  
             _eventHandlerInit 030A                   _IOCInterrupt 02D4            __end_of_getRunEvent 02D4  
       __end_of_initStateTable 00BF                    ?_timer2Init 0070               ??_initS1_Timeout 004C  
                     ??___wmul 004D               ??_initS2_Timeout 004A                    __pdataBANK0 005B  
                  _beeperTimer 0040                       ??_setLED 0049      __size_of_initIOCInterrupt 000B  
       __size_of_runS1_Timeout 0001         __size_of_runS2_Timeout 0001                       ?_LEDInit 0070  
       __size_of_runS3_Timeout 0001                    __pbssCOMMON 0077                   _init_Restart 04B5  
                    ___latbits 0000                  __pcstackBANK0 0049       __size_of_timer2Interrupt 001A  
       __size_of_runS4_Timeout 0001                       ?_ISRCode 0070                ??_beeperService 004F  
            __size_of_clearLED 0004        __end_of_initS4_greenLow 0560             longTimerGet@result 004C  
             ??_initS5_redHigh 004C              __size_of_flashLED 000B            _eventHandlerService 0220  
__size_of_runS4_GreenSteadyLow 0001               ??_initS8_bothLow 004A            __size_of_initialise 0017  
      __end_of_initS7_bothHigh 0539                      __pnvBANK0 005F                ??_longTimerRead 004D  
              ??_longTimerLock 0049          __end_of_initS6_redLow 0546                  _numLongTimers 007B  
            __size_of_timerGet 000E                      _flashRate 005D              __size_of_timerSet 000F  
         ?_eventHandlerService 0070          __size_of_longTimerGet 000E          __size_of_longTimerSet 001A  
             timerSet@duration 0049                 _timerInterrupt 00F7                      _initEvent 0047  
                 ??_beeperInit 004C                      _initState 0048             longTimerRead@index 0052  
          __size_of_timer2Init 000F                    _getRunEvent 029B             longTimerLock@index 004A  
                _runS1_Timeout 05CE                 ___wmul@product 004D                       _LATAbits 010C  
                     _LEDTimer 0043                  _runS2_Timeout 05CC                      clear_ram0 05A7  
                ??_runS1_Error 0049                       _PIE1bits 0091                  ??_runS2_Error 0049  
                ??_runS3_Error 0049                  _runS3_Timeout 05C9                  ??_runS4_Error 0049  
               _beepRepeatedly 0461                  _runS4_Timeout 05C6                       _PIR1bits 0011  
                    _numTimers 007C                   _longTimerGet 0502                 flashLED@period 0049  
                 _longTimerSet 03E4                      _timerInit 04A3                      _timerRead 0478  
                    _timerLock 04E4           __end_of_run_NoAction 05D0             __end_of_beeperInit 04D5  
        ??_eventHandlerService 0053         __end_of_timerInterrupt 018D    __size_of_runS2_BeepReceived 0001  
            ___wmul@multiplier 0049            _runS3_GreenFlashing 05C7          __end_of_init_NoAction 05D1  
             __size_of_LEDInit 000C          __end_of_initInterrupt 05C2               __size_of_ISRCode 000D  
             ?_initS4_greenLow 0070                 ?_runS1_Timeout 0070                timerRead@result 004C  
            ??_timer2Interrupt 0070                 ?_runS2_Timeout 0070           ?_runS3_GreenFlashing 0070  
       __end_of_beepRepeatedly 0478                 ?_runS3_Timeout 0070               ?_initS7_bothHigh 0070  
                  _initSMTimer 003B                 ?_runS4_Timeout 0070                     ?_timerInit 0070  
                   ?_timerRead 0049                     ?_timerLock 0070            __end_of_runS1_Error 05CE  
          __end_of_runS2_Error 05CC            __end_of_runS3_Error 05C9            __end_of_runS4_Error 05C5  
     __end_of_eventHandlerInit 0338                   ??_initialise 004F               _initIOCInterrupt 0591  
              ?_timerInterrupt 0070                     _ANSELAbits 018C                       _beepRate 005B  
               timerGet@result 004B                       _beeperOn 003D                    _redWentHigh 002A  
                     _clearLED 05BB      __size_of_initS3_greenHigh 000D                       __ptext10 04C6  
                     __ptext11 04D5                       __ptext20 05C9                       __ptext12 057A  
                     __ptext21 05CA                       __ptext13 0510                     _T1GCONbits 0019  
                     __ptext30 0539                       __ptext22 05CB                       __ptext14 0220  
                     __ptext31 0546                       __ptext23 05CC                       __ptext15 05C4  
                     __ptext40 029B                       __ptext32 0553                       __ptext24 05CD  
                     __ptext16 05C5                       __ptext41 05B7                       __ptext33 0560  
                     __ptext25 059C                       __ptext17 05C6                       __ptext50 04F3  
                     __ptext42 0363                       __ptext34 048F                       __ptext26 05CE  
                     __ptext18 05C7                       __ptext51 0478                       __ptext43 03FE  
                     __ptext35 056D                       __ptext27 05CF                       __ptext19 05C8  
                     __ptext44 05BB                       __ptext36 05D0                       __ptext28 0432  
                     __ptext53 00F7                       __ptext45 018D                       __ptext37 04B5  
                     __ptext29 052C                       __ptext54 0418                       __ptext46 04E4  
                     __ptext38 0461                       __ptext55 02D4                       __ptext47 03AD  
                     __ptext39 03E4                       __ptext56 051E                       __ptext48 0338  
                     __ptext49 03C9                       _flashLED 0586                       _flashing 0041  
              timerInterrupt@i 0075          ??_runS3_GreenFlashing 0049                  __size_of_main 0006  
              ?_beepRepeatedly 0049                    _buzzerTimer 0077             __end_of_initialise 0461  
                 ??_timer2Init 0049                       _timerGet 0510                       _timerSet 04F3  
           i1timerSet@duration 0070                       _runEvent 0045                       int$flags 007E  
                     _runState 0046                     _LEDService 03C9                 timerRead@index 004E  
                  _minuteTimer 0037                 timerLock@index 0049                     _INTCONbits 000B  
                ?_getInitEvent 0070                ??_runS1_Timeout 0049             __end_of_timer2Init 04E4  
                     intlevel1 0000                ??_runS2_Timeout 0049                ??_runS3_Timeout 0049  
                _flasherToggle 0042                ??_runS4_Timeout 0049              __CFG_CLKOUTEN$OFF 0000  
                  _runS1_Error 05CD                    _runS2_Error 05CB          __size_of_run_NoAction 0001  
                  _runS3_Error 05C8                     _OSCCONbits 0099                    _runS4_Error 05C4  
         beepRepeatedly@period 0049                    ??_timerInit 0049                    ??_timerRead 004C  
                  ??_timerLock 0049   __end_of_runS4_GreenSteadyLow 05C6           longTimerSet@duration 0049  
                timerSet@index 004B                 ??_getInitEvent 004F                     _WDTCONbits 0097  
                 ?_getRunEvent 0070          __end_of_beeperService 0363                   _run_NoAction 05CF  
                ?_hardwareInit 0070             _chargerInitialised 0024                beepRepeatedly@n 004B  
        __end_of_longTimerRead 038D          __end_of_longTimerLock 0418  
