

Microchip Technology PIC LITE Macro Assembler V1.37 build -260352376 
                                                                                               Mon Feb 27 19:01:30 2017

Microchip Technology Omniscient Code Generator v1.37 (Free mode) build 201603110536
     1                           	processor	12F1822
     2                           	opt	pw 120
     3                           	opt	lm
     4                           	psect	idataBANK0,global,class=CODE,delta=2
     5                           	psect	stringtext,global,class=STRCODE,delta=2
     6                           	psect	nvBANK0,global,class=BANK0,space=1,delta=1
     7                           	psect	cinit,global,class=CODE,merge=1,delta=2
     8                           	psect	bssCOMMON,global,class=COMMON,space=1,delta=1
     9                           	psect	bssBANK0,global,class=BANK0,space=1,delta=1
    10                           	psect	dataBANK0,global,class=BANK0,space=1,delta=1
    11                           	psect	clrtext,global,class=CODE,delta=2
    12                           	psect	cstackCOMMON,global,class=COMMON,space=1,delta=1
    13                           	psect	cstackBANK0,global,class=BANK0,space=1,delta=1
    14                           	psect	maintext,global,class=CODE,merge=1,split=1,delta=2
    15                           	psect	text1,local,class=CODE,merge=1,delta=2
    16                           	psect	text2,local,class=CODE,merge=1,delta=2
    17                           	psect	text3,local,class=CODE,merge=1,delta=2
    18                           	psect	text4,local,class=CODE,merge=1,delta=2
    19                           	psect	text5,local,class=CODE,merge=1,delta=2
    20                           	psect	text6,local,class=CODE,merge=1,delta=2
    21                           	psect	text7,local,class=CODE,merge=1,delta=2
    22                           	psect	text8,local,class=CODE,merge=1,delta=2
    23                           	psect	text9,local,class=CODE,merge=1,delta=2
    24                           	psect	text10,local,class=CODE,merge=1,delta=2
    25                           	psect	text11,local,class=CODE,merge=1,delta=2
    26                           	psect	text12,local,class=CODE,merge=1,delta=2
    27                           	psect	text13,local,class=CODE,merge=1,delta=2
    28                           	psect	text14,local,class=CODE,merge=1,delta=2
    29                           	psect	text15,local,class=CODE,merge=1,delta=2
    30                           	psect	text16,local,class=CODE,merge=1,delta=2
    31                           	psect	text17,local,class=CODE,merge=1,delta=2
    32                           	psect	text18,local,class=CODE,merge=1,delta=2
    33                           	psect	text19,local,class=CODE,merge=1,delta=2
    34                           	psect	text20,local,class=CODE,merge=1,delta=2
    35                           	psect	text21,local,class=CODE,merge=1,delta=2
    36                           	psect	text22,local,class=CODE,merge=1,delta=2
    37                           	psect	text23,local,class=CODE,merge=1,delta=2
    38                           	psect	text24,local,class=CODE,merge=1,delta=2
    39                           	psect	text25,local,class=CODE,merge=1,delta=2
    40                           	psect	text26,local,class=CODE,merge=1,delta=2
    41                           	psect	text27,local,class=CODE,merge=1,delta=2
    42                           	psect	intentry,global,class=CODE,delta=2
    43                           	psect	text29,local,class=CODE,merge=1,delta=2
    44                           	psect	text30,local,class=CODE,merge=1,delta=2
    45                           	psect	text31,local,class=CODE,merge=1,delta=2
    46                           	dabs	1,0x7E,2
    47  0000                     	;# 
    48  0001                     	;# 
    49  0002                     	;# 
    50  0003                     	;# 
    51  0004                     	;# 
    52  0005                     	;# 
    53  0006                     	;# 
    54  0007                     	;# 
    55  0008                     	;# 
    56  0009                     	;# 
    57  000A                     	;# 
    58  000B                     	;# 
    59  000C                     	;# 
    60  0011                     	;# 
    61  0012                     	;# 
    62  0015                     	;# 
    63  0016                     	;# 
    64  0016                     	;# 
    65  0017                     	;# 
    66  0018                     	;# 
    67  0019                     	;# 
    68  001A                     	;# 
    69  001B                     	;# 
    70  001C                     	;# 
    71  001E                     	;# 
    72  001F                     	;# 
    73  008C                     	;# 
    74  0091                     	;# 
    75  0092                     	;# 
    76  0095                     	;# 
    77  0096                     	;# 
    78  0097                     	;# 
    79  0098                     	;# 
    80  0099                     	;# 
    81  009A                     	;# 
    82  009B                     	;# 
    83  009B                     	;# 
    84  009C                     	;# 
    85  009D                     	;# 
    86  009E                     	;# 
    87  010C                     	;# 
    88  0111                     	;# 
    89  0112                     	;# 
    90  0115                     	;# 
    91  0116                     	;# 
    92  0117                     	;# 
    93  0118                     	;# 
    94  0119                     	;# 
    95  011A                     	;# 
    96  011B                     	;# 
    97  011D                     	;# 
    98  011D                     	;# 
    99  018C                     	;# 
   100  0191                     	;# 
   101  0191                     	;# 
   102  0192                     	;# 
   103  0193                     	;# 
   104  0193                     	;# 
   105  0193                     	;# 
   106  0194                     	;# 
   107  0195                     	;# 
   108  0196                     	;# 
   109  0199                     	;# 
   110  019A                     	;# 
   111  019B                     	;# 
   112  019B                     	;# 
   113  019B                     	;# 
   114  019B                     	;# 
   115  019C                     	;# 
   116  019C                     	;# 
   117  019D                     	;# 
   118  019E                     	;# 
   119  019F                     	;# 
   120  020C                     	;# 
   121  0211                     	;# 
   122  0211                     	;# 
   123  0212                     	;# 
   124  0212                     	;# 
   125  0213                     	;# 
   126  0213                     	;# 
   127  0214                     	;# 
   128  0214                     	;# 
   129  0215                     	;# 
   130  0215                     	;# 
   131  0215                     	;# 
   132  0216                     	;# 
   133  0216                     	;# 
   134  0217                     	;# 
   135  0217                     	;# 
   136  0291                     	;# 
   137  0291                     	;# 
   138  0292                     	;# 
   139  0293                     	;# 
   140  0294                     	;# 
   141  0295                     	;# 
   142  0295                     	;# 
   143  0296                     	;# 
   144  0391                     	;# 
   145  0392                     	;# 
   146  0393                     	;# 
   147  039A                     	;# 
   148  039C                     	;# 
   149  039D                     	;# 
   150  039E                     	;# 
   151  039F                     	;# 
   152  0FE4                     	;# 
   153  0FE5                     	;# 
   154  0FE6                     	;# 
   155  0FE7                     	;# 
   156  0FE8                     	;# 
   157  0FE9                     	;# 
   158  0FEA                     	;# 
   159  0FEB                     	;# 
   160  0FED                     	;# 
   161  0FEE                     	;# 
   162  0FEF                     	;# 
   163  0000                     	;# 
   164  0001                     	;# 
   165  0002                     	;# 
   166  0003                     	;# 
   167  0004                     	;# 
   168  0005                     	;# 
   169  0006                     	;# 
   170  0007                     	;# 
   171  0008                     	;# 
   172  0009                     	;# 
   173  000A                     	;# 
   174  000B                     	;# 
   175  000C                     	;# 
   176  0011                     	;# 
   177  0012                     	;# 
   178  0015                     	;# 
   179  0016                     	;# 
   180  0016                     	;# 
   181  0017                     	;# 
   182  0018                     	;# 
   183  0019                     	;# 
   184  001A                     	;# 
   185  001B                     	;# 
   186  001C                     	;# 
   187  001E                     	;# 
   188  001F                     	;# 
   189  008C                     	;# 
   190  0091                     	;# 
   191  0092                     	;# 
   192  0095                     	;# 
   193  0096                     	;# 
   194  0097                     	;# 
   195  0098                     	;# 
   196  0099                     	;# 
   197  009A                     	;# 
   198  009B                     	;# 
   199  009B                     	;# 
   200  009C                     	;# 
   201  009D                     	;# 
   202  009E                     	;# 
   203  010C                     	;# 
   204  0111                     	;# 
   205  0112                     	;# 
   206  0115                     	;# 
   207  0116                     	;# 
   208  0117                     	;# 
   209  0118                     	;# 
   210  0119                     	;# 
   211  011A                     	;# 
   212  011B                     	;# 
   213  011D                     	;# 
   214  011D                     	;# 
   215  018C                     	;# 
   216  0191                     	;# 
   217  0191                     	;# 
   218  0192                     	;# 
   219  0193                     	;# 
   220  0193                     	;# 
   221  0193                     	;# 
   222  0194                     	;# 
   223  0195                     	;# 
   224  0196                     	;# 
   225  0199                     	;# 
   226  019A                     	;# 
   227  019B                     	;# 
   228  019B                     	;# 
   229  019B                     	;# 
   230  019B                     	;# 
   231  019C                     	;# 
   232  019C                     	;# 
   233  019D                     	;# 
   234  019E                     	;# 
   235  019F                     	;# 
   236  020C                     	;# 
   237  0211                     	;# 
   238  0211                     	;# 
   239  0212                     	;# 
   240  0212                     	;# 
   241  0213                     	;# 
   242  0213                     	;# 
   243  0214                     	;# 
   244  0214                     	;# 
   245  0215                     	;# 
   246  0215                     	;# 
   247  0215                     	;# 
   248  0216                     	;# 
   249  0216                     	;# 
   250  0217                     	;# 
   251  0217                     	;# 
   252  0291                     	;# 
   253  0291                     	;# 
   254  0292                     	;# 
   255  0293                     	;# 
   256  0294                     	;# 
   257  0295                     	;# 
   258  0295                     	;# 
   259  0296                     	;# 
   260  0391                     	;# 
   261  0392                     	;# 
   262  0393                     	;# 
   263  039A                     	;# 
   264  039C                     	;# 
   265  039D                     	;# 
   266  039E                     	;# 
   267  039F                     	;# 
   268  0FE4                     	;# 
   269  0FE5                     	;# 
   270  0FE6                     	;# 
   271  0FE7                     	;# 
   272  0FE8                     	;# 
   273  0FE9                     	;# 
   274  0FEA                     	;# 
   275  0FEB                     	;# 
   276  0FED                     	;# 
   277  0FEE                     	;# 
   278  0FEF                     	;# 
   279  0000                     	;# 
   280  0001                     	;# 
   281  0002                     	;# 
   282  0003                     	;# 
   283  0004                     	;# 
   284  0005                     	;# 
   285  0006                     	;# 
   286  0007                     	;# 
   287  0008                     	;# 
   288  0009                     	;# 
   289  000A                     	;# 
   290  000B                     	;# 
   291  000C                     	;# 
   292  0011                     	;# 
   293  0012                     	;# 
   294  0015                     	;# 
   295  0016                     	;# 
   296  0016                     	;# 
   297  0017                     	;# 
   298  0018                     	;# 
   299  0019                     	;# 
   300  001A                     	;# 
   301  001B                     	;# 
   302  001C                     	;# 
   303  001E                     	;# 
   304  001F                     	;# 
   305  008C                     	;# 
   306  0091                     	;# 
   307  0092                     	;# 
   308  0095                     	;# 
   309  0096                     	;# 
   310  0097                     	;# 
   311  0098                     	;# 
   312  0099                     	;# 
   313  009A                     	;# 
   314  009B                     	;# 
   315  009B                     	;# 
   316  009C                     	;# 
   317  009D                     	;# 
   318  009E                     	;# 
   319  010C                     	;# 
   320  0111                     	;# 
   321  0112                     	;# 
   322  0115                     	;# 
   323  0116                     	;# 
   324  0117                     	;# 
   325  0118                     	;# 
   326  0119                     	;# 
   327  011A                     	;# 
   328  011B                     	;# 
   329  011D                     	;# 
   330  011D                     	;# 
   331  018C                     	;# 
   332  0191                     	;# 
   333  0191                     	;# 
   334  0192                     	;# 
   335  0193                     	;# 
   336  0193                     	;# 
   337  0193                     	;# 
   338  0194                     	;# 
   339  0195                     	;# 
   340  0196                     	;# 
   341  0199                     	;# 
   342  019A                     	;# 
   343  019B                     	;# 
   344  019B                     	;# 
   345  019B                     	;# 
   346  019B                     	;# 
   347  019C                     	;# 
   348  019C                     	;# 
   349  019D                     	;# 
   350  019E                     	;# 
   351  019F                     	;# 
   352  020C                     	;# 
   353  0211                     	;# 
   354  0211                     	;# 
   355  0212                     	;# 
   356  0212                     	;# 
   357  0213                     	;# 
   358  0213                     	;# 
   359  0214                     	;# 
   360  0214                     	;# 
   361  0215                     	;# 
   362  0215                     	;# 
   363  0215                     	;# 
   364  0216                     	;# 
   365  0216                     	;# 
   366  0217                     	;# 
   367  0217                     	;# 
   368  0291                     	;# 
   369  0291                     	;# 
   370  0292                     	;# 
   371  0293                     	;# 
   372  0294                     	;# 
   373  0295                     	;# 
   374  0295                     	;# 
   375  0296                     	;# 
   376  0391                     	;# 
   377  0392                     	;# 
   378  0393                     	;# 
   379  039A                     	;# 
   380  039C                     	;# 
   381  039D                     	;# 
   382  039E                     	;# 
   383  039F                     	;# 
   384  0FE4                     	;# 
   385  0FE5                     	;# 
   386  0FE6                     	;# 
   387  0FE7                     	;# 
   388  0FE8                     	;# 
   389  0FE9                     	;# 
   390  0FEA                     	;# 
   391  0FEB                     	;# 
   392  0FED                     	;# 
   393  0FEE                     	;# 
   394  0FEF                     	;# 
   395  0000                     	;# 
   396  0001                     	;# 
   397  0002                     	;# 
   398  0003                     	;# 
   399  0004                     	;# 
   400  0005                     	;# 
   401  0006                     	;# 
   402  0007                     	;# 
   403  0008                     	;# 
   404  0009                     	;# 
   405  000A                     	;# 
   406  000B                     	;# 
   407  000C                     	;# 
   408  0011                     	;# 
   409  0012                     	;# 
   410  0015                     	;# 
   411  0016                     	;# 
   412  0016                     	;# 
   413  0017                     	;# 
   414  0018                     	;# 
   415  0019                     	;# 
   416  001A                     	;# 
   417  001B                     	;# 
   418  001C                     	;# 
   419  001E                     	;# 
   420  001F                     	;# 
   421  008C                     	;# 
   422  0091                     	;# 
   423  0092                     	;# 
   424  0095                     	;# 
   425  0096                     	;# 
   426  0097                     	;# 
   427  0098                     	;# 
   428  0099                     	;# 
   429  009A                     	;# 
   430  009B                     	;# 
   431  009B                     	;# 
   432  009C                     	;# 
   433  009D                     	;# 
   434  009E                     	;# 
   435  010C                     	;# 
   436  0111                     	;# 
   437  0112                     	;# 
   438  0115                     	;# 
   439  0116                     	;# 
   440  0117                     	;# 
   441  0118                     	;# 
   442  0119                     	;# 
   443  011A                     	;# 
   444  011B                     	;# 
   445  011D                     	;# 
   446  011D                     	;# 
   447  018C                     	;# 
   448  0191                     	;# 
   449  0191                     	;# 
   450  0192                     	;# 
   451  0193                     	;# 
   452  0193                     	;# 
   453  0193                     	;# 
   454  0194                     	;# 
   455  0195                     	;# 
   456  0196                     	;# 
   457  0199                     	;# 
   458  019A                     	;# 
   459  019B                     	;# 
   460  019B                     	;# 
   461  019B                     	;# 
   462  019B                     	;# 
   463  019C                     	;# 
   464  019C                     	;# 
   465  019D                     	;# 
   466  019E                     	;# 
   467  019F                     	;# 
   468  020C                     	;# 
   469  0211                     	;# 
   470  0211                     	;# 
   471  0212                     	;# 
   472  0212                     	;# 
   473  0213                     	;# 
   474  0213                     	;# 
   475  0214                     	;# 
   476  0214                     	;# 
   477  0215                     	;# 
   478  0215                     	;# 
   479  0215                     	;# 
   480  0216                     	;# 
   481  0216                     	;# 
   482  0217                     	;# 
   483  0217                     	;# 
   484  0291                     	;# 
   485  0291                     	;# 
   486  0292                     	;# 
   487  0293                     	;# 
   488  0294                     	;# 
   489  0295                     	;# 
   490  0295                     	;# 
   491  0296                     	;# 
   492  0391                     	;# 
   493  0392                     	;# 
   494  0393                     	;# 
   495  039A                     	;# 
   496  039C                     	;# 
   497  039D                     	;# 
   498  039E                     	;# 
   499  039F                     	;# 
   500  0FE4                     	;# 
   501  0FE5                     	;# 
   502  0FE6                     	;# 
   503  0FE7                     	;# 
   504  0FE8                     	;# 
   505  0FE9                     	;# 
   506  0FEA                     	;# 
   507  0FEB                     	;# 
   508  0FED                     	;# 
   509  0FEE                     	;# 
   510  0FEF                     	;# 
   511  0000                     	;# 
   512  0001                     	;# 
   513  0002                     	;# 
   514  0003                     	;# 
   515  0004                     	;# 
   516  0005                     	;# 
   517  0006                     	;# 
   518  0007                     	;# 
   519  0008                     	;# 
   520  0009                     	;# 
   521  000A                     	;# 
   522  000B                     	;# 
   523  000C                     	;# 
   524  0011                     	;# 
   525  0012                     	;# 
   526  0015                     	;# 
   527  0016                     	;# 
   528  0016                     	;# 
   529  0017                     	;# 
   530  0018                     	;# 
   531  0019                     	;# 
   532  001A                     	;# 
   533  001B                     	;# 
   534  001C                     	;# 
   535  001E                     	;# 
   536  001F                     	;# 
   537  008C                     	;# 
   538  0091                     	;# 
   539  0092                     	;# 
   540  0095                     	;# 
   541  0096                     	;# 
   542  0097                     	;# 
   543  0098                     	;# 
   544  0099                     	;# 
   545  009A                     	;# 
   546  009B                     	;# 
   547  009B                     	;# 
   548  009C                     	;# 
   549  009D                     	;# 
   550  009E                     	;# 
   551  010C                     	;# 
   552  0111                     	;# 
   553  0112                     	;# 
   554  0115                     	;# 
   555  0116                     	;# 
   556  0117                     	;# 
   557  0118                     	;# 
   558  0119                     	;# 
   559  011A                     	;# 
   560  011B                     	;# 
   561  011D                     	;# 
   562  011D                     	;# 
   563  018C                     	;# 
   564  0191                     	;# 
   565  0191                     	;# 
   566  0192                     	;# 
   567  0193                     	;# 
   568  0193                     	;# 
   569  0193                     	;# 
   570  0194                     	;# 
   571  0195                     	;# 
   572  0196                     	;# 
   573  0199                     	;# 
   574  019A                     	;# 
   575  019B                     	;# 
   576  019B                     	;# 
   577  019B                     	;# 
   578  019B                     	;# 
   579  019C                     	;# 
   580  019C                     	;# 
   581  019D                     	;# 
   582  019E                     	;# 
   583  019F                     	;# 
   584  020C                     	;# 
   585  0211                     	;# 
   586  0211                     	;# 
   587  0212                     	;# 
   588  0212                     	;# 
   589  0213                     	;# 
   590  0213                     	;# 
   591  0214                     	;# 
   592  0214                     	;# 
   593  0215                     	;# 
   594  0215                     	;# 
   595  0215                     	;# 
   596  0216                     	;# 
   597  0216                     	;# 
   598  0217                     	;# 
   599  0217                     	;# 
   600  0291                     	;# 
   601  0291                     	;# 
   602  0292                     	;# 
   603  0293                     	;# 
   604  0294                     	;# 
   605  0295                     	;# 
   606  0295                     	;# 
   607  0296                     	;# 
   608  0391                     	;# 
   609  0392                     	;# 
   610  0393                     	;# 
   611  039A                     	;# 
   612  039C                     	;# 
   613  039D                     	;# 
   614  039E                     	;# 
   615  039F                     	;# 
   616  0FE4                     	;# 
   617  0FE5                     	;# 
   618  0FE6                     	;# 
   619  0FE7                     	;# 
   620  0FE8                     	;# 
   621  0FE9                     	;# 
   622  0FEA                     	;# 
   623  0FEB                     	;# 
   624  0FED                     	;# 
   625  0FEE                     	;# 
   626  0FEF                     	;# 
   627  0000                     	;# 
   628  0001                     	;# 
   629  0002                     	;# 
   630  0003                     	;# 
   631  0004                     	;# 
   632  0005                     	;# 
   633  0006                     	;# 
   634  0007                     	;# 
   635  0008                     	;# 
   636  0009                     	;# 
   637  000A                     	;# 
   638  000B                     	;# 
   639  000C                     	;# 
   640  0011                     	;# 
   641  0012                     	;# 
   642  0015                     	;# 
   643  0016                     	;# 
   644  0016                     	;# 
   645  0017                     	;# 
   646  0018                     	;# 
   647  0019                     	;# 
   648  001A                     	;# 
   649  001B                     	;# 
   650  001C                     	;# 
   651  001E                     	;# 
   652  001F                     	;# 
   653  008C                     	;# 
   654  0091                     	;# 
   655  0092                     	;# 
   656  0095                     	;# 
   657  0096                     	;# 
   658  0097                     	;# 
   659  0098                     	;# 
   660  0099                     	;# 
   661  009A                     	;# 
   662  009B                     	;# 
   663  009B                     	;# 
   664  009C                     	;# 
   665  009D                     	;# 
   666  009E                     	;# 
   667  010C                     	;# 
   668  0111                     	;# 
   669  0112                     	;# 
   670  0115                     	;# 
   671  0116                     	;# 
   672  0117                     	;# 
   673  0118                     	;# 
   674  0119                     	;# 
   675  011A                     	;# 
   676  011B                     	;# 
   677  011D                     	;# 
   678  011D                     	;# 
   679  018C                     	;# 
   680  0191                     	;# 
   681  0191                     	;# 
   682  0192                     	;# 
   683  0193                     	;# 
   684  0193                     	;# 
   685  0193                     	;# 
   686  0194                     	;# 
   687  0195                     	;# 
   688  0196                     	;# 
   689  0199                     	;# 
   690  019A                     	;# 
   691  019B                     	;# 
   692  019B                     	;# 
   693  019B                     	;# 
   694  019B                     	;# 
   695  019C                     	;# 
   696  019C                     	;# 
   697  019D                     	;# 
   698  019E                     	;# 
   699  019F                     	;# 
   700  020C                     	;# 
   701  0211                     	;# 
   702  0211                     	;# 
   703  0212                     	;# 
   704  0212                     	;# 
   705  0213                     	;# 
   706  0213                     	;# 
   707  0214                     	;# 
   708  0214                     	;# 
   709  0215                     	;# 
   710  0215                     	;# 
   711  0215                     	;# 
   712  0216                     	;# 
   713  0216                     	;# 
   714  0217                     	;# 
   715  0217                     	;# 
   716  0291                     	;# 
   717  0291                     	;# 
   718  0292                     	;# 
   719  0293                     	;# 
   720  0294                     	;# 
   721  0295                     	;# 
   722  0295                     	;# 
   723  0296                     	;# 
   724  0391                     	;# 
   725  0392                     	;# 
   726  0393                     	;# 
   727  039A                     	;# 
   728  039C                     	;# 
   729  039D                     	;# 
   730  039E                     	;# 
   731  039F                     	;# 
   732  0FE4                     	;# 
   733  0FE5                     	;# 
   734  0FE6                     	;# 
   735  0FE7                     	;# 
   736  0FE8                     	;# 
   737  0FE9                     	;# 
   738  0FEA                     	;# 
   739  0FEB                     	;# 
   740  0FED                     	;# 
   741  0FEE                     	;# 
   742  0FEF                     	;# 
   743                           
   744                           	psect	idataBANK0
   745  021C                     __pidataBANK0:	
   746                           
   747                           ;initializer for _beepRate
   748  021C  34E8               	retlw	232
   749  021D  3403               	retlw	3
   750                           
   751                           ;initializer for _flashRate
   752  021E  34E8               	retlw	232
   753  021F  3403               	retlw	3
   754                           
   755                           	psect	stringtext
   756  01DF                     __pstringtext:	
   757  01DF                     _stateTable:	
   758  01DF  3423               	retlw	low _action_s1_e1
   759  01E0  3402               	retlw	high _action_s1_e1
   760  01E1  342D               	retlw	low _action_s1_e2
   761  01E2  3402               	retlw	high _action_s1_e2
   762  01E3  342C               	retlw	low _action_s2_e1
   763  01E4  3402               	retlw	high _action_s2_e1
   764  01E5  342B               	retlw	low _action_s2_e2
   765  01E6  3402               	retlw	high _action_s2_e2
   766  01E7  342A               	retlw	low _action_s3_e1
   767  01E8  3402               	retlw	high _action_s3_e1
   768  01E9  342E               	retlw	low _action_s3_e2
   769  01EA  3402               	retlw	high _action_s3_e2
   770  01EB                     __end_of_stateTable:	
   771                           
   772                           	psect	nvBANK0
   773  005D                     __pnvBANK0:	
   774  005D                     _eventHandlerTimer:	
   775  005D                     	ds	1
   776  0016                     _TMR1	set	22
   777  000B                     _INTCONbits	set	11
   778  0011                     _PIR1bits	set	17
   779  000C                     _PORTAbits	set	12
   780  001B                     _PR2	set	27
   781  0018                     _T1CONbits	set	24
   782  0019                     _T1GCONbits	set	25
   783  001C                     _T2CONbits	set	28
   784  0099                     _OSCCONbits	set	153
   785  0091                     _PIE1bits	set	145
   786  008C                     _TRISAbits	set	140
   787  0097                     _WDTCONbits	set	151
   788  010C                     _LATAbits	set	268
   789  018C                     _ANSELAbits	set	396
   790  0393                     _IOCAFbits	set	915
   791  0392                     _IOCANbits	set	914
   792                           
   793                           ; #config settings
   794  0000                     
   795                           	psect	cinit
   796  0012                     start_initialization:	
   797  0012                     __initialization:	
   798                           
   799                           ; Clear objects allocated to COMMON
   800  0012  01F6               	clrf	__pbssCOMMON& (0+127)
   801  0013  01F7               	clrf	(__pbssCOMMON+1)& (0+127)
   802  0014  01F8               	clrf	(__pbssCOMMON+2)& (0+127)
   803  0015  01F9               	clrf	(__pbssCOMMON+3)& (0+127)
   804                           
   805                           ; Clear objects allocated to BANK0
   806  0016  3020               	movlw	low __pbssBANK0
   807  0017  0084               	movwf	4
   808  0018  3000               	movlw	high __pbssBANK0
   809  0019  0085               	movwf	5
   810  001A  302B               	movlw	43
   811  001B  2210               	fcall	clear_ram0
   812                           
   813                           ; Initialize objects allocated to BANK0
   814  001C  221C               	fcall	__pidataBANK0	;fetch initializer
   815  001D  00D9               	movwf	__pdataBANK0& (0+127)
   816  001E  221D               	fcall	__pidataBANK0+1	;fetch initializer
   817  001F  00DA               	movwf	(__pdataBANK0+1)& (0+127)
   818  0020  221E               	fcall	__pidataBANK0+2	;fetch initializer
   819  0021  00DB               	movwf	(__pdataBANK0+2)& (0+127)
   820  0022  221F               	fcall	__pidataBANK0+3	;fetch initializer
   821  0023  00DC               	movwf	(__pdataBANK0+3)& (0+127)
   822  0024                     end_of_initialization:	
   823                           ;End of C runtime variable initialization code
   824                           
   825  0024                     __end_of__initialization:	
   826  0024  107E               	bcf	int$flags,0	;clear compiler interrupt flag (level 1)
   827  0025  0020               	movlb	0
   828  0026  2A16               	ljmp	_main	;jump to C main() function
   829                           
   830                           	psect	bssCOMMON
   831  0076                     __pbssCOMMON:	
   832  0076                     _LEDTimer:	
   833  0076                     	ds	1
   834  0077                     _beeperTimer:	
   835  0077                     	ds	1
   836  0078                     _currentState:	
   837  0078                     	ds	1
   838  0079                     _numTimers:	
   839  0079                     	ds	1
   840                           
   841                           	psect	bssBANK0
   842  0020                     __pbssBANK0:	
   843  0020                     _timers:	
   844  0020                     	ds	32
   845  0040                     _delayTimer:	
   846  0040                     	ds	2
   847  0042                     _nBeeps:	
   848  0042                     	ds	2
   849  0044                     _beeperOn:	
   850  0044                     	ds	1
   851  0045                     _beeperToggle:	
   852  0045                     	ds	1
   853  0046                     _flasherToggle:	
   854  0046                     	ds	1
   855  0047                     _flashing:	
   856  0047                     	ds	1
   857  0048                     _lastEvent:	
   858  0048                     	ds	1
   859  0049                     _newEvent:	
   860  0049                     	ds	1
   861  004A                     _repeatedBeeping:	
   862  004A                     	ds	1
   863                           
   864                           	psect	dataBANK0
   865  0059                     __pdataBANK0:	
   866  0059                     _beepRate:	
   867  0059                     	ds	2
   868  005B                     _flashRate:	
   869  005B                     	ds	2
   870                           
   871                           	psect	clrtext
   872  0210                     clear_ram0:	
   873                           ;	Called with FSR0 containing the base address, and
   874                           ;	WREG with the size to clear
   875                           
   876  0210  0064               	clrwdt	;clear the watchdog before getting into this loop
   877  0211                     clrloop0:	
   878  0211  0180               	clrf	0	;clear RAM location pointed to by FSR
   879  0212  3101               	addfsr 0,1
   880  0213  0B89               	decfsz	9,f	;Have we reached the end of clearing yet?
   881  0214  2A11               	goto	clrloop0	;have we reached the end yet?
   882  0215  3400               	retlw	0	;all done for this memory range, return
   883                           
   884                           	psect	cstackCOMMON
   885  0070                     __pcstackCOMMON:	
   886  0070                     ?_action_s1_e1:	
   887  0070                     ?_action_s1_e2:	
   888                           ; 1 bytes @ 0x0
   889                           
   890  0070                     ?_action_s2_e1:	
   891                           ; 1 bytes @ 0x0
   892                           
   893  0070                     ?_action_s2_e2:	
   894                           ; 1 bytes @ 0x0
   895                           
   896  0070                     ?_action_s3_e1:	
   897                           ; 1 bytes @ 0x0
   898                           
   899  0070                     ?_action_s3_e2:	
   900                           ; 1 bytes @ 0x0
   901                           
   902  0070                     ?_timerGet:	
   903                           ; 1 bytes @ 0x0
   904                           
   905  0070                     ?_setEvent:	
   906                           ; 1 bytes @ 0x0
   907                           
   908  0070                     ?_getNewEvent:	
   909                           ; 1 bytes @ 0x0
   910                           
   911  0070                     ?_timerInterrupt:	
   912                           ; 1 bytes @ 0x0
   913                           
   914  0070                     ??_timerInterrupt:	
   915                           ; 1 bytes @ 0x0
   916                           
   917  0070                     ??_timer2Interrupt:	
   918                           ; 1 bytes @ 0x0
   919                           
   920  0070                     ?_initialise:	
   921                           ; 1 bytes @ 0x0
   922                           
   923  0070                     ?_beeperService:	
   924                           ; 1 bytes @ 0x0
   925                           
   926  0070                     ?_hardwareInit:	
   927                           ; 1 bytes @ 0x0
   928                           
   929  0070                     ?_timerInit:	
   930                           ; 1 bytes @ 0x0
   931                           
   932  0070                     ?_beeperInit:	
   933                           ; 1 bytes @ 0x0
   934                           
   935  0070                     ?_timerLock:	
   936                           ; 1 bytes @ 0x0
   937                           
   938  0070                     ?_initIOCInterrupt:	
   939                           ; 1 bytes @ 0x0
   940                           
   941  0070                     ?_IOCInterrupt:	
   942                           ; 1 bytes @ 0x0
   943                           
   944  0070                     ??_IOCInterrupt:	
   945                           ; 1 bytes @ 0x0
   946                           
   947  0070                     ?_eventHandlerInit:	
   948                           ; 1 bytes @ 0x0
   949                           
   950  0070                     ?_eventHandlerService:	
   951                           ; 1 bytes @ 0x0
   952                           
   953  0070                     ?_initInterrupt:	
   954                           ; 1 bytes @ 0x0
   955                           
   956  0070                     ?_ISRCode:	
   957                           ; 1 bytes @ 0x0
   958                           
   959  0070                     ?_LEDInit:	
   960                           ; 1 bytes @ 0x0
   961                           
   962  0070                     ?_LEDService:	
   963                           ; 1 bytes @ 0x0
   964                           
   965  0070                     ?_kickWatchDog:	
   966                           ; 1 bytes @ 0x0
   967                           
   968  0070                     ?_main:	
   969                           ; 1 bytes @ 0x0
   970                           
   971  0070                     ?_timer2Init:	
   972                           ; 1 bytes @ 0x0
   973                           
   974  0070                     ?_timer2Interrupt:	
   975                           ; 1 bytes @ 0x0
   976                           
   977                           
   978                           ; 2 bytes @ 0x0
   979  0070                     	ds	2
   980  0072                     timerInterrupt@i:	
   981                           
   982                           ; 1 bytes @ 0x2
   983  0072                     	ds	1
   984  0073                     ??_ISRCode:	
   985                           
   986                           ; 1 bytes @ 0x3
   987  0073                     	ds	1
   988  0074                     ??_action_s1_e1:	
   989  0074                     ??_action_s1_e2:	
   990                           ; 1 bytes @ 0x4
   991                           
   992  0074                     ??_action_s2_e1:	
   993                           ; 1 bytes @ 0x4
   994                           
   995  0074                     ??_action_s2_e2:	
   996                           ; 1 bytes @ 0x4
   997                           
   998  0074                     ??_action_s3_e1:	
   999                           ; 1 bytes @ 0x4
  1000                           
  1001  0074                     ??_action_s3_e2:	
  1002                           ; 1 bytes @ 0x4
  1003                           
  1004  0074                     ?_timerSet:	
  1005                           ; 1 bytes @ 0x4
  1006                           
  1007  0074                     ??_setEvent:	
  1008                           ; 1 bytes @ 0x4
  1009                           
  1010  0074                     ??_timerRead:	
  1011                           ; 1 bytes @ 0x4
  1012                           
  1013  0074                     ??_getNewEvent:	
  1014                           ; 1 bytes @ 0x4
  1015                           
  1016  0074                     ??_hardwareInit:	
  1017                           ; 1 bytes @ 0x4
  1018                           
  1019  0074                     ??_timerInit:	
  1020                           ; 1 bytes @ 0x4
  1021                           
  1022  0074                     ??_beepRepeatedly:	
  1023                           ; 1 bytes @ 0x4
  1024                           
  1025  0074                     ??_timerLock:	
  1026                           ; 1 bytes @ 0x4
  1027                           
  1028  0074                     ??_initIOCInterrupt:	
  1029                           ; 1 bytes @ 0x4
  1030                           
  1031  0074                     ??_initInterrupt:	
  1032                           ; 1 bytes @ 0x4
  1033                           
  1034  0074                     ?_flashLED:	
  1035                           ; 1 bytes @ 0x4
  1036                           
  1037  0074                     ??_kickWatchDog:	
  1038                           ; 1 bytes @ 0x4
  1039                           
  1040  0074                     ??_timer2Init:	
  1041                           ; 1 bytes @ 0x4
  1042                           
  1043  0074                     timerLock@index:	
  1044                           ; 1 bytes @ 0x4
  1045                           
  1046  0074                     flashLED@period:	
  1047                           ; 1 bytes @ 0x4
  1048                           
  1049  0074                     timerSet@duration:	
  1050                           ; 2 bytes @ 0x4
  1051                           
  1052                           
  1053                           ; 2 bytes @ 0x4
  1054  0074                     	ds	1
  1055  0075                     ??_timerGet:	
  1056  0075                     setEvent@envent:	
  1057                           ; 1 bytes @ 0x5
  1058                           
  1059                           
  1060                           ; 1 bytes @ 0x5
  1061  0075                     	ds	1
  1062  0076                     ??_timerSet:	
  1063  0076                     ??_initialise:	
  1064                           ; 1 bytes @ 0x6
  1065                           
  1066  0076                     ??_beeperService:	
  1067                           ; 1 bytes @ 0x6
  1068                           
  1069  0076                     ??_flashLED:	
  1070                           ; 1 bytes @ 0x6
  1071                           
  1072  0076                     ??_LEDService:	
  1073                           ; 1 bytes @ 0x6
  1074                           
  1075  0076                     ??_main:	
  1076                           ; 1 bytes @ 0x6
  1077                           
  1078                           
  1079                           	psect	cstackBANK0
  1080  004B                     __pcstackBANK0:	
  1081                           ; 1 bytes @ 0x6
  1082                           
  1083  004B                     ?_beepRepeatedly:	
  1084  004B                     ?_timerRead:	
  1085                           ; 1 bytes @ 0x0
  1086                           
  1087  004B                     timerGet@result:	
  1088                           ; 2 bytes @ 0x0
  1089                           
  1090  004B                     timerSet@index:	
  1091                           ; 1 bytes @ 0x0
  1092                           
  1093  004B                     beepRepeatedly@period:	
  1094                           ; 1 bytes @ 0x0
  1095                           
  1096                           
  1097                           ; 2 bytes @ 0x0
  1098  004B                     	ds	1
  1099  004C                     ??_beeperInit:	
  1100  004C                     ??_eventHandlerInit:	
  1101                           ; 1 bytes @ 0x1
  1102                           
  1103  004C                     ??_LEDInit:	
  1104                           ; 1 bytes @ 0x1
  1105                           
  1106                           
  1107                           ; 1 bytes @ 0x1
  1108  004C                     	ds	1
  1109  004D                     beepRepeatedly@n:	
  1110                           
  1111                           ; 2 bytes @ 0x2
  1112  004D                     	ds	1
  1113  004E                     timerRead@result:	
  1114                           
  1115                           ; 2 bytes @ 0x3
  1116  004E                     	ds	2
  1117  0050                     timerRead@index:	
  1118                           
  1119                           ; 1 bytes @ 0x5
  1120  0050                     	ds	1
  1121  0051                     ??_eventHandlerService:	
  1122                           
  1123                           ; 1 bytes @ 0x6
  1124  0051                     	ds	8
  1125                           
  1126                           	psect	maintext
  1127  0216                     __pmaintext:	
  1128 ;;
  1129 ;;Main: autosize = 0, tempsize = 0, incstack = 0, save=0
  1130 ;;
  1131 ;; *************** function _main *****************
  1132 ;; Defined at:
  1133 ;;		line 29 in file "../source/main.c"
  1134 ;; Parameters:    Size  Location     Type
  1135 ;;		None
  1136 ;; Auto vars:     Size  Location     Type
  1137 ;;		None
  1138 ;; Return value:  Size  Location     Type
  1139 ;;                  1    wreg      void 
  1140 ;; Registers used:
  1141 ;;		wreg, fsr0l, fsr0h, fsr1l, fsr1h, status,2, status,0, pclath, cstack
  1142 ;; Tracked objects:
  1143 ;;		On entry : B1F/0
  1144 ;;		On exit  : 0/0
  1145 ;;		Unchanged: 0/0
  1146 ;; Data sizes:     COMMON   BANK0   BANK1
  1147 ;;      Params:         0       0       0
  1148 ;;      Locals:         0       0       0
  1149 ;;      Temps:          0       0       0
  1150 ;;      Totals:         0       0       0
  1151 ;;Total ram usage:        0 bytes
  1152 ;; Hardware stack levels required when called:    6
  1153 ;; This function calls:
  1154 ;;		_LEDService
  1155 ;;		_beeperService
  1156 ;;		_eventHandlerService
  1157 ;;		_initialise
  1158 ;;		_kickWatchDog
  1159 ;; This function is called by:
  1160 ;;		Startup code after reset
  1161 ;; This function uses a non-reentrant model
  1162 ;;
  1163                           
  1164                           
  1165                           ;psect for function _main
  1166  0216                     _main:	
  1167                           
  1168                           ;main.c: 31: initialise();
  1169                           
  1170                           ;incstack = 0
  1171                           ; Regs used in _main: [wreg-fsr1h+status,2+status,0+pclath+cstack]
  1172  0216  214C               	fcall	_initialise
  1173  0217                     l1400:	
  1174                           ;main.c: 32: while( 1 )
  1175                           
  1176                           
  1177                           ;main.c: 33: {
  1178                           ;main.c: 34: eventHandlerService();
  1179  0217  2027               	fcall	_eventHandlerService
  1180                           
  1181                           ;main.c: 35: LEDService();
  1182  0218  20D1               	fcall	_LEDService
  1183                           
  1184                           ;main.c: 36: beeperService();
  1185  0219  20A6               	fcall	_beeperService
  1186                           
  1187                           ;main.c: 37: kickWatchDog();
  1188  021A  2226               	fcall	_kickWatchDog
  1189  021B  2A17               	goto	l1400
  1190  021C                     __end_of_main:	
  1191                           
  1192                           	psect	text1
  1193  0226                     __ptext1:	
  1194 ;; *************** function _kickWatchDog *****************
  1195 ;; Defined at:
  1196 ;;		line 18 in file "../source/main.c"
  1197 ;; Parameters:    Size  Location     Type
  1198 ;;		None
  1199 ;; Auto vars:     Size  Location     Type
  1200 ;;		None
  1201 ;; Return value:  Size  Location     Type
  1202 ;;                  1    wreg      void 
  1203 ;; Registers used:
  1204 ;;		None
  1205 ;; Tracked objects:
  1206 ;;		On entry : 0/0
  1207 ;;		On exit  : 0/0
  1208 ;;		Unchanged: 0/0
  1209 ;; Data sizes:     COMMON   BANK0   BANK1
  1210 ;;      Params:         0       0       0
  1211 ;;      Locals:         0       0       0
  1212 ;;      Temps:          0       0       0
  1213 ;;      Totals:         0       0       0
  1214 ;;Total ram usage:        0 bytes
  1215 ;; Hardware stack levels used:    1
  1216 ;; Hardware stack levels required when called:    2
  1217 ;; This function calls:
  1218 ;;		Nothing
  1219 ;; This function is called by:
  1220 ;;		_main
  1221 ;; This function uses a non-reentrant model
  1222 ;;
  1223                           
  1224                           
  1225                           ;psect for function _kickWatchDog
  1226  0226                     _kickWatchDog:	
  1227                           
  1228                           ;incstack = 0
  1229                           ; Regs used in _kickWatchDog: []
  1230  0226  0064               	clrwdt	;# 
  1231  0227  0008               	return
  1232  0228                     __end_of_kickWatchDog:	
  1233                           
  1234                           	psect	text2
  1235  014C                     __ptext2:	
  1236 ;; *************** function _initialise *****************
  1237 ;; Defined at:
  1238 ;;		line 47 in file "../source/main.c"
  1239 ;; Parameters:    Size  Location     Type
  1240 ;;		None
  1241 ;; Auto vars:     Size  Location     Type
  1242 ;;		None
  1243 ;; Return value:  Size  Location     Type
  1244 ;;                  1    wreg      void 
  1245 ;; Registers used:
  1246 ;;		wreg, fsr1l, fsr1h, status,2, status,0, pclath, cstack
  1247 ;; Tracked objects:
  1248 ;;		On entry : 0/0
  1249 ;;		On exit  : 0/0
  1250 ;;		Unchanged: 0/0
  1251 ;; Data sizes:     COMMON   BANK0   BANK1
  1252 ;;      Params:         0       0       0
  1253 ;;      Locals:         0       0       0
  1254 ;;      Temps:          0       0       0
  1255 ;;      Totals:         0       0       0
  1256 ;;Total ram usage:        0 bytes
  1257 ;; Hardware stack levels used:    1
  1258 ;; Hardware stack levels required when called:    5
  1259 ;; This function calls:
  1260 ;;		_LEDInit
  1261 ;;		_beepRepeatedly
  1262 ;;		_beeperInit
  1263 ;;		_eventHandlerInit
  1264 ;;		_flashLED
  1265 ;;		_hardwareInit
  1266 ;;		_initInterrupt
  1267 ;;		_timerInit
  1268 ;; This function is called by:
  1269 ;;		_main
  1270 ;; This function uses a non-reentrant model
  1271 ;;
  1272                           
  1273                           
  1274                           ;psect for function _initialise
  1275  014C                     _initialise:	
  1276                           
  1277                           ;main.c: 49: hardwareInit();
  1278                           
  1279                           ;incstack = 0
  1280                           ; Regs used in _initialise: [wreg+fsr1l+fsr1h+status,2+status,0+pclath+cstack]
  1281  014C  2106               	fcall	_hardwareInit
  1282                           
  1283                           ;main.c: 50: timerInit();
  1284  014D  2176               	fcall	_timerInit
  1285                           
  1286                           ;main.c: 51: eventHandlerInit();
  1287  014E  2187               	fcall	_eventHandlerInit
  1288                           
  1289                           ;main.c: 52: LEDInit();
  1290  014F  21EB               	fcall	_LEDInit
  1291                           
  1292                           ;main.c: 53: beeperInit();
  1293  0150  2196               	fcall	_beeperInit
  1294                           
  1295                           ;main.c: 54: initInterrupt();
  1296  0151  2220               	fcall	_initInterrupt
  1297                           
  1298                           ;main.c: 55: flashLED(1000);
  1299  0152  30E8               	movlw	232
  1300  0153  00F4               	movwf	flashLED@period
  1301  0154  3003               	movlw	3
  1302  0155  00F5               	movwf	flashLED@period+1
  1303  0156  21F7               	fcall	_flashLED
  1304                           
  1305                           ;main.c: 56: beepRepeatedly(300, 3);
  1306  0157  302C               	movlw	44
  1307  0158  0020               	movlb	0	; select bank0
  1308  0159  00CB               	movwf	beepRepeatedly@period
  1309  015A  3001               	movlw	1
  1310  015B  00CC               	movwf	beepRepeatedly@period+1
  1311  015C  3003               	movlw	3
  1312  015D  00CD               	movwf	beepRepeatedly@n
  1313  015E  3000               	movlw	0
  1314  015F  00CE               	movwf	beepRepeatedly@n+1
  1315  0160  211E               	fcall	_beepRepeatedly
  1316  0161  0008               	return
  1317  0162                     __end_of_initialise:	
  1318                           
  1319                           	psect	text3
  1320  0176                     __ptext3:	
  1321 ;; *************** function _timerInit *****************
  1322 ;; Defined at:
  1323 ;;		line 23 in file "../source/timer.c"
  1324 ;; Parameters:    Size  Location     Type
  1325 ;;		None
  1326 ;; Auto vars:     Size  Location     Type
  1327 ;;		None
  1328 ;; Return value:  Size  Location     Type
  1329 ;;                  1    wreg      void 
  1330 ;; Registers used:
  1331 ;;		status,2
  1332 ;; Tracked objects:
  1333 ;;		On entry : 0/0
  1334 ;;		On exit  : 0/0
  1335 ;;		Unchanged: 0/0
  1336 ;; Data sizes:     COMMON   BANK0   BANK1
  1337 ;;      Params:         0       0       0
  1338 ;;      Locals:         0       0       0
  1339 ;;      Temps:          0       0       0
  1340 ;;      Totals:         0       0       0
  1341 ;;Total ram usage:        0 bytes
  1342 ;; Hardware stack levels used:    1
  1343 ;; Hardware stack levels required when called:    2
  1344 ;; This function calls:
  1345 ;;		Nothing
  1346 ;; This function is called by:
  1347 ;;		_initialise
  1348 ;; This function uses a non-reentrant model
  1349 ;;
  1350                           
  1351                           
  1352                           ;psect for function _timerInit
  1353  0176                     _timerInit:	
  1354                           
  1355                           ;timer.c: 25: numTimers = 0;
  1356                           
  1357                           ;incstack = 0
  1358                           ; Regs used in _timerInit: [status,2]
  1359  0176  01F9               	clrf	_numTimers
  1360                           
  1361                           ;timer.c: 27: T1GCONbits.TMR1GE = 0;
  1362  0177  0020               	movlb	0	; select bank0
  1363  0178  1399               	bcf	25,7	;volatile
  1364                           
  1365                           ;timer.c: 29: T1CONbits.TMR1CS1 = 0;
  1366  0179  1398               	bcf	24,7	;volatile
  1367                           
  1368                           ;timer.c: 30: T1CONbits.TMR1CS0 = 1;
  1369  017A  1718               	bsf	24,6	;volatile
  1370                           
  1371                           ;timer.c: 31: T1CONbits.T1CKPS1 = 0;
  1372  017B  1298               	bcf	24,5	;volatile
  1373                           
  1374                           ;timer.c: 32: T1CONbits.T1CKPS0 = 0;
  1375  017C  1218               	bcf	24,4	;volatile
  1376                           
  1377                           ;timer.c: 34: TMR1 = 32000;
  1378  017D  307D               	movlw	125
  1379  017E  0097               	movwf	23	;volatile
  1380  017F  3000               	movlw	0
  1381  0180  0096               	movwf	22	;volatile
  1382                           
  1383                           ;timer.c: 36: PIE1bits.TMR1IE = 1;
  1384  0181  0021               	movlb	1	; select bank1
  1385  0182  1411               	bsf	17,0	;volatile
  1386                           
  1387                           ;timer.c: 38: INTCONbits.PEIE = 1;
  1388  0183  170B               	bsf	11,6	;volatile
  1389                           
  1390                           ;timer.c: 39: T1CONbits.TMR1ON = 1;
  1391  0184  0020               	movlb	0	; select bank0
  1392  0185  1418               	bsf	24,0	;volatile
  1393  0186  0008               	return
  1394  0187                     __end_of_timerInit:	
  1395                           
  1396                           	psect	text4
  1397  0220                     __ptext4:	
  1398 ;; *************** function _initInterrupt *****************
  1399 ;; Defined at:
  1400 ;;		line 16 in file "../source/interrupt.c"
  1401 ;; Parameters:    Size  Location     Type
  1402 ;;		None
  1403 ;; Auto vars:     Size  Location     Type
  1404 ;;		None
  1405 ;; Return value:  Size  Location     Type
  1406 ;;                  1    wreg      void 
  1407 ;; Registers used:
  1408 ;;		None
  1409 ;; Tracked objects:
  1410 ;;		On entry : 0/0
  1411 ;;		On exit  : 0/0
  1412 ;;		Unchanged: 0/0
  1413 ;; Data sizes:     COMMON   BANK0   BANK1
  1414 ;;      Params:         0       0       0
  1415 ;;      Locals:         0       0       0
  1416 ;;      Temps:          0       0       0
  1417 ;;      Totals:         0       0       0
  1418 ;;Total ram usage:        0 bytes
  1419 ;; Hardware stack levels used:    1
  1420 ;; Hardware stack levels required when called:    2
  1421 ;; This function calls:
  1422 ;;		Nothing
  1423 ;; This function is called by:
  1424 ;;		_initialise
  1425 ;; This function uses a non-reentrant model
  1426 ;;
  1427                           
  1428                           
  1429                           ;psect for function _initInterrupt
  1430  0220                     _initInterrupt:	
  1431                           
  1432                           ;interrupt.c: 18: INTCONbits.PEIE = 1;
  1433                           
  1434                           ;incstack = 0
  1435                           ; Regs used in _initInterrupt: []
  1436  0220  170B               	bsf	11,6	;volatile
  1437                           
  1438                           ;interrupt.c: 19: INTCONbits.GIE = 1;
  1439  0221  178B               	bsf	11,7	;volatile
  1440  0222  0008               	return
  1441  0223                     __end_of_initInterrupt:	
  1442                           
  1443                           	psect	text5
  1444  0106                     __ptext5:	
  1445 ;; *************** function _hardwareInit *****************
  1446 ;; Defined at:
  1447 ;;		line 65 in file "../source/main.c"
  1448 ;; Parameters:    Size  Location     Type
  1449 ;;		None
  1450 ;; Auto vars:     Size  Location     Type
  1451 ;;		None
  1452 ;; Return value:  Size  Location     Type
  1453 ;;                  1    wreg      void 
  1454 ;; Registers used:
  1455 ;;		wreg, status,2, status,0
  1456 ;; Tracked objects:
  1457 ;;		On entry : 0/0
  1458 ;;		On exit  : 0/0
  1459 ;;		Unchanged: 0/0
  1460 ;; Data sizes:     COMMON   BANK0   BANK1
  1461 ;;      Params:         0       0       0
  1462 ;;      Locals:         0       0       0
  1463 ;;      Temps:          0       0       0
  1464 ;;      Totals:         0       0       0
  1465 ;;Total ram usage:        0 bytes
  1466 ;; Hardware stack levels used:    1
  1467 ;; Hardware stack levels required when called:    2
  1468 ;; This function calls:
  1469 ;;		Nothing
  1470 ;; This function is called by:
  1471 ;;		_initialise
  1472 ;; This function uses a non-reentrant model
  1473 ;;
  1474                           
  1475                           
  1476                           ;psect for function _hardwareInit
  1477  0106                     _hardwareInit:	
  1478                           
  1479                           ;main.c: 67: OSCCONbits.SCS = 0;
  1480                           
  1481                           ;incstack = 0
  1482                           ; Regs used in _hardwareInit: [wreg+status,2+status,0]
  1483  0106  30FC               	movlw	-4
  1484  0107  0021               	movlb	1	; select bank1
  1485  0108  0599               	andwf	25,f	;volatile
  1486                           
  1487                           ;main.c: 68: OSCCONbits.IRCF = 0xE;
  1488  0109  0819               	movf	25,w	;volatile
  1489  010A  3987               	andlw	-121
  1490  010B  3870               	iorlw	112
  1491  010C  0099               	movwf	25	;volatile
  1492                           
  1493                           ;main.c: 69: OSCCONbits.SPLLEN = 1;
  1494  010D  1799               	bsf	25,7	;volatile
  1495                           
  1496                           ;main.c: 71: TRISAbits.TRISA5 = 0;
  1497  010E  128C               	bcf	12,5	;volatile
  1498                           
  1499                           ;main.c: 73: TRISAbits.TRISA1 = 0;
  1500  010F  108C               	bcf	12,1	;volatile
  1501                           
  1502                           ;main.c: 74: ANSELAbits.ANSA1 = 0;
  1503  0110  0023               	movlb	3	; select bank3
  1504  0111  108C               	bcf	12,1	;volatile
  1505                           
  1506                           ;main.c: 75: LATAbits.LATA1 = 0;
  1507  0112  0022               	movlb	2	; select bank2
  1508  0113  108C               	bcf	12,1	;volatile
  1509                           
  1510                           ;main.c: 77: TRISAbits.TRISA3 = 1;
  1511  0114  0021               	movlb	1	; select bank1
  1512  0115  158C               	bsf	12,3	;volatile
  1513                           
  1514                           ;main.c: 79: TRISAbits.TRISA4 = 0;
  1515  0116  120C               	bcf	12,4	;volatile
  1516                           
  1517                           ;main.c: 80: ANSELAbits.ANSA4 = 0;
  1518  0117  0023               	movlb	3	; select bank3
  1519  0118  120C               	bcf	12,4	;volatile
  1520                           
  1521                           ;main.c: 81: LATAbits.LATA4 = 0;
  1522  0119  0022               	movlb	2	; select bank2
  1523  011A  120C               	bcf	12,4	;volatile
  1524                           
  1525                           ;main.c: 120: WDTCONbits.SWDTEN = 1;
  1526  011B  0021               	movlb	1	; select bank1
  1527  011C  1417               	bsf	23,0	;volatile
  1528  011D  0008               	return
  1529  011E                     __end_of_hardwareInit:	
  1530                           
  1531                           	psect	text6
  1532  01F7                     __ptext6:	
  1533 ;; *************** function _flashLED *****************
  1534 ;; Defined at:
  1535 ;;		line 31 in file "../source/LED.c"
  1536 ;; Parameters:    Size  Location     Type
  1537 ;;  period          2    4[COMMON] int 
  1538 ;; Auto vars:     Size  Location     Type
  1539 ;;		None
  1540 ;; Return value:  Size  Location     Type
  1541 ;;                  1    wreg      void 
  1542 ;; Registers used:
  1543 ;;		wreg
  1544 ;; Tracked objects:
  1545 ;;		On entry : 0/0
  1546 ;;		On exit  : 0/0
  1547 ;;		Unchanged: 0/0
  1548 ;; Data sizes:     COMMON   BANK0   BANK1
  1549 ;;      Params:         2       0       0
  1550 ;;      Locals:         0       0       0
  1551 ;;      Temps:          0       0       0
  1552 ;;      Totals:         2       0       0
  1553 ;;Total ram usage:        2 bytes
  1554 ;; Hardware stack levels used:    1
  1555 ;; Hardware stack levels required when called:    2
  1556 ;; This function calls:
  1557 ;;		Nothing
  1558 ;; This function is called by:
  1559 ;;		_initialise
  1560 ;; This function uses a non-reentrant model
  1561 ;;
  1562                           
  1563                           
  1564                           ;psect for function _flashLED
  1565  01F7                     _flashLED:	
  1566                           
  1567                           ;LED.c: 33: flashing = !0;
  1568                           
  1569                           ;incstack = 0
  1570                           ; Regs used in _flashLED: [wreg]
  1571  01F7  0020               	movlb	0	; select bank0
  1572  01F8  01C7               	clrf	_flashing
  1573  01F9  0AC7               	incf	_flashing,f
  1574                           
  1575                           ;LED.c: 34: PORTAbits.RA5 = 0;
  1576  01FA  128C               	bcf	12,5	;volatile
  1577                           
  1578                           ;LED.c: 35: flashRate = period;
  1579  01FB  0875               	movf	flashLED@period+1,w
  1580  01FC  00DC               	movwf	_flashRate+1
  1581  01FD  0874               	movf	flashLED@period,w
  1582  01FE  00DB               	movwf	_flashRate
  1583                           
  1584                           ;LED.c: 36: flasherToggle = !0;
  1585  01FF  01C6               	clrf	_flasherToggle
  1586  0200  0AC6               	incf	_flasherToggle,f
  1587  0201  0008               	return
  1588  0202                     __end_of_flashLED:	
  1589                           
  1590                           	psect	text7
  1591  0187                     __ptext7:	
  1592 ;; *************** function _eventHandlerInit *****************
  1593 ;; Defined at:
  1594 ;;		line 53 in file "../source/eventhandler.c"
  1595 ;; Parameters:    Size  Location     Type
  1596 ;;		None
  1597 ;; Auto vars:     Size  Location     Type
  1598 ;;		None
  1599 ;; Return value:  Size  Location     Type
  1600 ;;                  1    wreg      void 
  1601 ;; Registers used:
  1602 ;;		wreg, fsr1l, fsr1h, status,2, status,0, pclath, cstack
  1603 ;; Tracked objects:
  1604 ;;		On entry : 0/0
  1605 ;;		On exit  : 0/0
  1606 ;;		Unchanged: 0/0
  1607 ;; Data sizes:     COMMON   BANK0   BANK1
  1608 ;;      Params:         0       0       0
  1609 ;;      Locals:         0       0       0
  1610 ;;      Temps:          0       1       0
  1611 ;;      Totals:         0       1       0
  1612 ;;Total ram usage:        1 bytes
  1613 ;; Hardware stack levels used:    1
  1614 ;; Hardware stack levels required when called:    4
  1615 ;; This function calls:
  1616 ;;		_initIOCInterrupt
  1617 ;;		_setEvent
  1618 ;;		_timerGet
  1619 ;;		_timerSet
  1620 ;; This function is called by:
  1621 ;;		_initialise
  1622 ;; This function uses a non-reentrant model
  1623 ;;
  1624                           
  1625                           
  1626                           ;psect for function _eventHandlerInit
  1627  0187                     _eventHandlerInit:	
  1628                           
  1629                           ;eventhandler.c: 55: eventHandlerTimer = timerGet ();
  1630                           
  1631                           ;incstack = 0
  1632                           ; Regs used in _eventHandlerInit: [wreg+fsr1l+fsr1h+status,2+status,0+pclath+cstack]
  1633  0187  21C3               	fcall	_timerGet
  1634  0188  0020               	movlb	0	; select bank0
  1635  0189  00CC               	movwf	??_eventHandlerInit
  1636  018A  084C               	movf	??_eventHandlerInit,w
  1637  018B  00DD               	movwf	_eventHandlerTimer
  1638                           
  1639                           ;eventhandler.c: 56: timerSet( eventHandlerTimer, 100 );
  1640  018C  3064               	movlw	100
  1641  018D  00F4               	movwf	timerSet@duration
  1642  018E  3000               	movlw	0
  1643  018F  00F5               	movwf	timerSet@duration+1
  1644  0190  085D               	movf	_eventHandlerTimer,w
  1645  0191  21B4               	fcall	_timerSet
  1646                           
  1647                           ;eventhandler.c: 57: initIOCInterrupt();
  1648  0192  2209               	fcall	_initIOCInterrupt
  1649                           
  1650                           ;eventhandler.c: 58: setEvent( INITIALISING_TX );
  1651  0193  3000               	movlw	0
  1652  0194  2202               	fcall	_setEvent
  1653  0195  0008               	return
  1654  0196                     __end_of_eventHandlerInit:	
  1655                           
  1656                           	psect	text8
  1657  0202                     __ptext8:	
  1658 ;; *************** function _setEvent *****************
  1659 ;; Defined at:
  1660 ;;		line 101 in file "../source/eventhandler.c"
  1661 ;; Parameters:    Size  Location     Type
  1662 ;;  envent          1    wreg     enum E2219
  1663 ;; Auto vars:     Size  Location     Type
  1664 ;;  envent          1    5[COMMON] enum E2219
  1665 ;; Return value:  Size  Location     Type
  1666 ;;                  1    wreg      void 
  1667 ;; Registers used:
  1668 ;;		wreg
  1669 ;; Tracked objects:
  1670 ;;		On entry : 0/0
  1671 ;;		On exit  : 0/0
  1672 ;;		Unchanged: 0/0
  1673 ;; Data sizes:     COMMON   BANK0   BANK1
  1674 ;;      Params:         0       0       0
  1675 ;;      Locals:         1       0       0
  1676 ;;      Temps:          1       0       0
  1677 ;;      Totals:         2       0       0
  1678 ;;Total ram usage:        2 bytes
  1679 ;; Hardware stack levels used:    1
  1680 ;; Hardware stack levels required when called:    2
  1681 ;; This function calls:
  1682 ;;		Nothing
  1683 ;; This function is called by:
  1684 ;;		_eventHandlerInit
  1685 ;; This function uses a non-reentrant model
  1686 ;;
  1687                           
  1688                           
  1689                           ;psect for function _setEvent
  1690  0202                     _setEvent:	
  1691                           
  1692                           ;incstack = 0
  1693                           ; Regs used in _setEvent: [wreg]
  1694                           ;setEvent@envent stored from wreg
  1695  0202  00F5               	movwf	setEvent@envent
  1696                           
  1697                           ;eventhandler.c: 102: lastEvent = envent;
  1698  0203  0875               	movf	setEvent@envent,w
  1699  0204  00F4               	movwf	??_setEvent
  1700  0205  0874               	movf	??_setEvent,w
  1701  0206  0020               	movlb	0	; select bank0
  1702  0207  00C8               	movwf	_lastEvent
  1703  0208  0008               	return
  1704  0209                     __end_of_setEvent:	
  1705                           
  1706                           	psect	text9
  1707  0209                     __ptext9:	
  1708 ;; *************** function _initIOCInterrupt *****************
  1709 ;; Defined at:
  1710 ;;		line 21 in file "../source/eventhandler.c"
  1711 ;; Parameters:    Size  Location     Type
  1712 ;;		None
  1713 ;; Auto vars:     Size  Location     Type
  1714 ;;		None
  1715 ;; Return value:  Size  Location     Type
  1716 ;;                  1    wreg      void 
  1717 ;; Registers used:
  1718 ;;		None
  1719 ;; Tracked objects:
  1720 ;;		On entry : 0/0
  1721 ;;		On exit  : 0/0
  1722 ;;		Unchanged: 0/0
  1723 ;; Data sizes:     COMMON   BANK0   BANK1
  1724 ;;      Params:         0       0       0
  1725 ;;      Locals:         0       0       0
  1726 ;;      Temps:          0       0       0
  1727 ;;      Totals:         0       0       0
  1728 ;;Total ram usage:        0 bytes
  1729 ;; Hardware stack levels used:    1
  1730 ;; Hardware stack levels required when called:    2
  1731 ;; This function calls:
  1732 ;;		Nothing
  1733 ;; This function is called by:
  1734 ;;		_eventHandlerInit
  1735 ;; This function uses a non-reentrant model
  1736 ;;
  1737                           
  1738                           
  1739                           ;psect for function _initIOCInterrupt
  1740  0209                     _initIOCInterrupt:	
  1741                           
  1742                           ;eventhandler.c: 23: INTCONbits.GIE = 1;
  1743                           
  1744                           ;incstack = 0
  1745                           ; Regs used in _initIOCInterrupt: []
  1746  0209  178B               	bsf	11,7	;volatile
  1747                           
  1748                           ;eventhandler.c: 24: IOCANbits.IOCAN3 = 1;
  1749  020A  0027               	movlb	7	; select bank7
  1750  020B  1592               	bsf	18,3	;volatile
  1751                           
  1752                           ;eventhandler.c: 25: INTCONbits.IOCIF = 0;
  1753  020C  100B               	bcf	11,0	;volatile
  1754                           
  1755                           ;eventhandler.c: 26: INTCONbits.IOCIE = 1;
  1756  020D  158B               	bsf	11,3	;volatile
  1757                           
  1758                           ;eventhandler.c: 27: INTCONbits.PEIE = 1;
  1759  020E  170B               	bsf	11,6	;volatile
  1760  020F  0008               	return
  1761  0210                     __end_of_initIOCInterrupt:	
  1762                           
  1763                           	psect	text10
  1764  0196                     __ptext10:	
  1765 ;; *************** function _beeperInit *****************
  1766 ;; Defined at:
  1767 ;;		line 95 in file "../source/beeper.c"
  1768 ;; Parameters:    Size  Location     Type
  1769 ;;		None
  1770 ;; Auto vars:     Size  Location     Type
  1771 ;;		None
  1772 ;; Return value:  Size  Location     Type
  1773 ;;                  1    wreg      void 
  1774 ;; Registers used:
  1775 ;;		wreg, fsr1l, fsr1h, status,2, status,0, pclath, cstack
  1776 ;; Tracked objects:
  1777 ;;		On entry : 0/0
  1778 ;;		On exit  : 0/0
  1779 ;;		Unchanged: 0/0
  1780 ;; Data sizes:     COMMON   BANK0   BANK1
  1781 ;;      Params:         0       0       0
  1782 ;;      Locals:         0       0       0
  1783 ;;      Temps:          0       1       0
  1784 ;;      Totals:         0       1       0
  1785 ;;Total ram usage:        1 bytes
  1786 ;; Hardware stack levels used:    1
  1787 ;; Hardware stack levels required when called:    4
  1788 ;; This function calls:
  1789 ;;		_timer2Init
  1790 ;;		_timerGet
  1791 ;;		_timerSet
  1792 ;; This function is called by:
  1793 ;;		_initialise
  1794 ;; This function uses a non-reentrant model
  1795 ;;
  1796                           
  1797                           
  1798                           ;psect for function _beeperInit
  1799  0196                     _beeperInit:	
  1800                           
  1801                           ;beeper.c: 97: timer2Init();
  1802                           
  1803                           ;incstack = 0
  1804                           ; Regs used in _beeperInit: [wreg+fsr1l+fsr1h+status,2+status,0+pclath+cstack]
  1805  0196  21A5               	fcall	_timer2Init
  1806                           
  1807                           ;beeper.c: 98: beeperOn = 0;
  1808  0197  0020               	movlb	0	; select bank0
  1809  0198  01C4               	clrf	_beeperOn
  1810                           
  1811                           ;beeper.c: 99: beeperTimer = timerGet ();
  1812  0199  21C3               	fcall	_timerGet
  1813  019A  0020               	movlb	0	; select bank0
  1814  019B  00CC               	movwf	??_beeperInit
  1815  019C  084C               	movf	??_beeperInit,w
  1816  019D  00F7               	movwf	_beeperTimer
  1817                           
  1818                           ;beeper.c: 100: timerSet( beeperTimer, beepRate );
  1819  019E  085A               	movf	_beepRate+1,w
  1820  019F  00F5               	movwf	timerSet@duration+1
  1821  01A0  0859               	movf	_beepRate,w
  1822  01A1  00F4               	movwf	timerSet@duration
  1823  01A2  0877               	movf	_beeperTimer,w
  1824  01A3  21B4               	fcall	_timerSet
  1825  01A4  0008               	return
  1826  01A5                     __end_of_beeperInit:	
  1827                           
  1828                           	psect	text11
  1829  01A5                     __ptext11:	
  1830 ;; *************** function _timer2Init *****************
  1831 ;; Defined at:
  1832 ;;		line 29 in file "../source/beeper.c"
  1833 ;; Parameters:    Size  Location     Type
  1834 ;;		None
  1835 ;; Auto vars:     Size  Location     Type
  1836 ;;		None
  1837 ;; Return value:  Size  Location     Type
  1838 ;;                  1    wreg      void 
  1839 ;; Registers used:
  1840 ;;		wreg, status,2, status,0
  1841 ;; Tracked objects:
  1842 ;;		On entry : 0/0
  1843 ;;		On exit  : 0/0
  1844 ;;		Unchanged: 0/0
  1845 ;; Data sizes:     COMMON   BANK0   BANK1
  1846 ;;      Params:         0       0       0
  1847 ;;      Locals:         0       0       0
  1848 ;;      Temps:          0       0       0
  1849 ;;      Totals:         0       0       0
  1850 ;;Total ram usage:        0 bytes
  1851 ;; Hardware stack levels used:    1
  1852 ;; Hardware stack levels required when called:    2
  1853 ;; This function calls:
  1854 ;;		Nothing
  1855 ;; This function is called by:
  1856 ;;		_beeperInit
  1857 ;; This function uses a non-reentrant model
  1858 ;;
  1859                           
  1860                           
  1861                           ;psect for function _timer2Init
  1862  01A5                     _timer2Init:	
  1863                           
  1864                           ;beeper.c: 32: T2CONbits.T2CKPS = 0b00;
  1865                           
  1866                           ;incstack = 0
  1867                           ; Regs used in _timer2Init: [wreg+status,2+status,0]
  1868  01A5  30FC               	movlw	-4
  1869  01A6  0020               	movlb	0	; select bank0
  1870  01A7  059C               	andwf	28,f	;volatile
  1871                           
  1872                           ;beeper.c: 33: T2CONbits.T2OUTPS = 0b0111;;
  1873  01A8  081C               	movf	28,w	;volatile
  1874  01A9  3987               	andlw	-121
  1875  01AA  3838               	iorlw	56
  1876  01AB  009C               	movwf	28	;volatile
  1877                           
  1878                           ;beeper.c: 35: PR2 = 0x65;
  1879  01AC  3065               	movlw	101
  1880  01AD  009B               	movwf	27	;volatile
  1881                           
  1882                           ;beeper.c: 37: PIE1bits.TMR2IE = 1;
  1883  01AE  0021               	movlb	1	; select bank1
  1884  01AF  1491               	bsf	17,1	;volatile
  1885                           
  1886                           ;beeper.c: 39: INTCONbits.PEIE = 1;
  1887  01B0  170B               	bsf	11,6	;volatile
  1888                           
  1889                           ;beeper.c: 40: T2CONbits.TMR2ON = 1;
  1890  01B1  0020               	movlb	0	; select bank0
  1891  01B2  151C               	bsf	28,2	;volatile
  1892  01B3  0008               	return
  1893  01B4                     __end_of_timer2Init:	
  1894                           
  1895                           	psect	text12
  1896  011E                     __ptext12:	
  1897 ;; *************** function _beepRepeatedly *****************
  1898 ;; Defined at:
  1899 ;;		line 82 in file "../source/beeper.c"
  1900 ;; Parameters:    Size  Location     Type
  1901 ;;  period          2    0[BANK0 ] int 
  1902 ;;  n               2    2[BANK0 ] int 
  1903 ;; Auto vars:     Size  Location     Type
  1904 ;;		None
  1905 ;; Return value:  Size  Location     Type
  1906 ;;                  1    wreg      void 
  1907 ;; Registers used:
  1908 ;;		wreg, status,2, status,0
  1909 ;; Tracked objects:
  1910 ;;		On entry : 0/0
  1911 ;;		On exit  : 0/0
  1912 ;;		Unchanged: 0/0
  1913 ;; Data sizes:     COMMON   BANK0   BANK1
  1914 ;;      Params:         0       4       0
  1915 ;;      Locals:         0       0       0
  1916 ;;      Temps:          0       0       0
  1917 ;;      Totals:         0       4       0
  1918 ;;Total ram usage:        4 bytes
  1919 ;; Hardware stack levels used:    1
  1920 ;; Hardware stack levels required when called:    2
  1921 ;; This function calls:
  1922 ;;		Nothing
  1923 ;; This function is called by:
  1924 ;;		_initialise
  1925 ;; This function uses a non-reentrant model
  1926 ;;
  1927                           
  1928                           
  1929                           ;psect for function _beepRepeatedly
  1930  011E                     _beepRepeatedly:	
  1931                           
  1932                           ;beeper.c: 84: repeatedBeeping = !0;
  1933                           
  1934                           ;incstack = 0
  1935                           ; Regs used in _beepRepeatedly: [wreg+status,2+status,0]
  1936  011E  0020               	movlb	0	; select bank0
  1937  011F  01CA               	clrf	_repeatedBeeping
  1938  0120  0ACA               	incf	_repeatedBeeping,f
  1939                           
  1940                           ;beeper.c: 85: if (n != -1)
  1941  0121  0A4D               	incf	beepRepeatedly@n,w
  1942  0122  1903               	btfsc	3,2
  1943  0123  0A4E               	incf	beepRepeatedly@n+1,w
  1944  0124  1903               	btfsc	3,2
  1945  0125  292A               	goto	l1332
  1946                           
  1947                           ;beeper.c: 86: nBeeps = n * 2;
  1948  0126  354D               	lslf	beepRepeatedly@n,w
  1949  0127  00C2               	movwf	_nBeeps
  1950  0128  0D4E               	rlf	beepRepeatedly@n+1,w
  1951  0129  292D               	goto	L1
  1952  012A                     l1332:	
  1953                           
  1954                           ;beeper.c: 87: else
  1955                           ;beeper.c: 88: nBeeps = -1;
  1956  012A  30FF               	movlw	255
  1957  012B  00C2               	movwf	_nBeeps
  1958  012C  30FF               	movlw	255
  1959  012D                     L1:	
  1960  012D  00C3               	movwf	_nBeeps+1
  1961                           
  1962                           ;beeper.c: 89: beeperOn = 0;
  1963  012E  01C4               	clrf	_beeperOn
  1964                           
  1965                           ;beeper.c: 90: beepRate = period;
  1966  012F  084C               	movf	beepRepeatedly@period+1,w
  1967  0130  00DA               	movwf	_beepRate+1
  1968  0131  084B               	movf	beepRepeatedly@period,w
  1969  0132  00D9               	movwf	_beepRate
  1970                           
  1971                           ;beeper.c: 91: beeperToggle = 0;
  1972  0133  01C5               	clrf	_beeperToggle
  1973  0134  0008               	return
  1974  0135                     __end_of_beepRepeatedly:	
  1975                           
  1976                           	psect	text13
  1977  01EB                     __ptext13:	
  1978 ;; *************** function _LEDInit *****************
  1979 ;; Defined at:
  1980 ;;		line 40 in file "../source/LED.c"
  1981 ;; Parameters:    Size  Location     Type
  1982 ;;		None
  1983 ;; Auto vars:     Size  Location     Type
  1984 ;;		None
  1985 ;; Return value:  Size  Location     Type
  1986 ;;                  1    wreg      void 
  1987 ;; Registers used:
  1988 ;;		wreg, fsr1l, fsr1h, status,2, status,0, pclath, cstack
  1989 ;; Tracked objects:
  1990 ;;		On entry : 0/0
  1991 ;;		On exit  : 0/0
  1992 ;;		Unchanged: 0/0
  1993 ;; Data sizes:     COMMON   BANK0   BANK1
  1994 ;;      Params:         0       0       0
  1995 ;;      Locals:         0       0       0
  1996 ;;      Temps:          0       1       0
  1997 ;;      Totals:         0       1       0
  1998 ;;Total ram usage:        1 bytes
  1999 ;; Hardware stack levels used:    1
  2000 ;; Hardware stack levels required when called:    4
  2001 ;; This function calls:
  2002 ;;		_timerGet
  2003 ;;		_timerSet
  2004 ;; This function is called by:
  2005 ;;		_initialise
  2006 ;; This function uses a non-reentrant model
  2007 ;;
  2008                           
  2009                           
  2010                           ;psect for function _LEDInit
  2011  01EB                     _LEDInit:	
  2012                           
  2013                           ;LED.c: 42: LEDTimer = timerGet ();
  2014                           
  2015                           ;incstack = 0
  2016                           ; Regs used in _LEDInit: [wreg+fsr1l+fsr1h+status,2+status,0+pclath+cstack]
  2017  01EB  21C3               	fcall	_timerGet
  2018  01EC  0020               	movlb	0	; select bank0
  2019  01ED  00CC               	movwf	??_LEDInit
  2020  01EE  084C               	movf	??_LEDInit,w
  2021  01EF  00F6               	movwf	_LEDTimer
  2022                           
  2023                           ;LED.c: 44: timerSet( LEDTimer, flashRate );
  2024  01F0  085C               	movf	_flashRate+1,w
  2025  01F1  00F5               	movwf	timerSet@duration+1
  2026  01F2  085B               	movf	_flashRate,w
  2027  01F3  00F4               	movwf	timerSet@duration
  2028  01F4  0876               	movf	_LEDTimer,w
  2029  01F5  21B4               	fcall	_timerSet
  2030  01F6  0008               	return
  2031  01F7                     __end_of_LEDInit:	
  2032                           
  2033                           	psect	text14
  2034  01C3                     __ptext14:	
  2035 ;; *************** function _timerGet *****************
  2036 ;; Defined at:
  2037 ;;		line 86 in file "../source/timer.c"
  2038 ;; Parameters:    Size  Location     Type
  2039 ;;		None
  2040 ;; Auto vars:     Size  Location     Type
  2041 ;;  result          1    0[BANK0 ] unsigned char 
  2042 ;; Return value:  Size  Location     Type
  2043 ;;                  1    wreg      unsigned char 
  2044 ;; Registers used:
  2045 ;;		wreg, fsr1l, fsr1h, status,2, status,0, pclath, cstack
  2046 ;; Tracked objects:
  2047 ;;		On entry : 0/0
  2048 ;;		On exit  : 0/0
  2049 ;;		Unchanged: 0/0
  2050 ;; Data sizes:     COMMON   BANK0   BANK1
  2051 ;;      Params:         0       0       0
  2052 ;;      Locals:         0       1       0
  2053 ;;      Temps:          1       0       0
  2054 ;;      Totals:         1       1       0
  2055 ;;Total ram usage:        2 bytes
  2056 ;; Hardware stack levels used:    1
  2057 ;; Hardware stack levels required when called:    3
  2058 ;; This function calls:
  2059 ;;		_timerLock
  2060 ;; This function is called by:
  2061 ;;		_eventHandlerInit
  2062 ;;		_LEDInit
  2063 ;;		_beeperInit
  2064 ;; This function uses a non-reentrant model
  2065 ;;
  2066                           
  2067                           
  2068                           ;psect for function _timerGet
  2069  01C3                     _timerGet:	
  2070                           
  2071                           ;timer.c: 88: TTimerIndex result;
  2072                           ;timer.c: 90: result = numTimers;
  2073                           
  2074                           ;incstack = 0
  2075                           ; Regs used in _timerGet: [wreg+fsr1l+fsr1h+status,2+status,0+pclath+cstack]
  2076  01C3  0879               	movf	_numTimers,w
  2077  01C4  00F5               	movwf	??_timerGet
  2078  01C5  0875               	movf	??_timerGet,w
  2079  01C6  0020               	movlb	0	; select bank0
  2080  01C7  00CB               	movwf	timerGet@result
  2081                           
  2082                           ;timer.c: 91: numTimers++;
  2083  01C8  3001               	movlw	1
  2084  01C9  00F5               	movwf	??_timerGet
  2085  01CA  0875               	movf	??_timerGet,w
  2086  01CB  07F9               	addwf	_numTimers,f
  2087                           
  2088                           ;timer.c: 92: timerLock( result );
  2089  01CC  084B               	movf	timerGet@result,w
  2090  01CD  21D1               	fcall	_timerLock
  2091                           
  2092                           ;timer.c: 93: return ( result );
  2093  01CE  0020               	movlb	0	; select bank0
  2094  01CF  084B               	movf	timerGet@result,w
  2095  01D0  0008               	return
  2096  01D1                     __end_of_timerGet:	
  2097                           
  2098                           	psect	text15
  2099  01D1                     __ptext15:	
  2100 ;; *************** function _timerLock *****************
  2101 ;; Defined at:
  2102 ;;		line 139 in file "../source/timer.c"
  2103 ;; Parameters:    Size  Location     Type
  2104 ;;  index           1    wreg     unsigned char 
  2105 ;; Auto vars:     Size  Location     Type
  2106 ;;  index           1    4[COMMON] unsigned char 
  2107 ;; Return value:  Size  Location     Type
  2108 ;;                  1    wreg      void 
  2109 ;; Registers used:
  2110 ;;		wreg, fsr1l, fsr1h, status,2, status,0
  2111 ;; Tracked objects:
  2112 ;;		On entry : 0/0
  2113 ;;		On exit  : 0/0
  2114 ;;		Unchanged: 0/0
  2115 ;; Data sizes:     COMMON   BANK0   BANK1
  2116 ;;      Params:         0       0       0
  2117 ;;      Locals:         1       0       0
  2118 ;;      Temps:          0       0       0
  2119 ;;      Totals:         1       0       0
  2120 ;;Total ram usage:        1 bytes
  2121 ;; Hardware stack levels used:    1
  2122 ;; Hardware stack levels required when called:    2
  2123 ;; This function calls:
  2124 ;;		Nothing
  2125 ;; This function is called by:
  2126 ;;		_timerGet
  2127 ;; This function uses a non-reentrant model
  2128 ;;
  2129                           
  2130                           
  2131                           ;psect for function _timerLock
  2132  01D1                     _timerLock:	
  2133                           
  2134                           ;incstack = 0
  2135                           ; Regs used in _timerLock: [wreg+fsr1l+fsr1h+status,2+status,0]
  2136                           ;timerLock@index stored from wreg
  2137  01D1  00F4               	movwf	timerLock@index
  2138                           
  2139                           ;timer.c: 141: if ( index < numTimers )
  2140  01D2  0879               	movf	_numTimers,w
  2141  01D3  0274               	subwf	timerLock@index,w
  2142  01D4  1803               	skipnc
  2143  01D5  0008               	return
  2144                           
  2145                           ;timer.c: 142: {
  2146                           ;timer.c: 143: timers[index] = 0xFFFF;
  2147  01D6  3574               	lslf	timerLock@index,w
  2148  01D7  3E20               	addlw	(low (_timers| 0))& (0+255)
  2149  01D8  0086               	movwf	6
  2150  01D9  0187               	clrf	7
  2151  01DA  30FF               	movlw	255
  2152  01DB  3FC0               	movwi [0]fsr1
  2153  01DC  30FF               	movlw	255
  2154  01DD  3FC1               	movwi [1]fsr1
  2155  01DE  0008               	return
  2156  01DF                     __end_of_timerLock:	
  2157                           
  2158                           	psect	text16
  2159  0027                     __ptext16:	
  2160 ;; *************** function _eventHandlerService *****************
  2161 ;; Defined at:
  2162 ;;		line 61 in file "../source/eventhandler.c"
  2163 ;; Parameters:    Size  Location     Type
  2164 ;;		None
  2165 ;; Auto vars:     Size  Location     Type
  2166 ;;		None
  2167 ;; Return value:  Size  Location     Type
  2168 ;;                  1    wreg      void 
  2169 ;; Registers used:
  2170 ;;		wreg, fsr0l, fsr0h, fsr1l, fsr1h, status,2, status,0, pclath, cstack
  2171 ;; Tracked objects:
  2172 ;;		On entry : 0/0
  2173 ;;		On exit  : 0/0
  2174 ;;		Unchanged: 0/0
  2175 ;; Data sizes:     COMMON   BANK0   BANK1
  2176 ;;      Params:         0       0       0
  2177 ;;      Locals:         0       0       0
  2178 ;;      Temps:          0       8       0
  2179 ;;      Totals:         0       8       0
  2180 ;;Total ram usage:        8 bytes
  2181 ;; Hardware stack levels used:    1
  2182 ;; Hardware stack levels required when called:    3
  2183 ;; This function calls:
  2184 ;;		_action_s1_e1
  2185 ;;		_action_s1_e2
  2186 ;;		_action_s2_e1
  2187 ;;		_action_s2_e2
  2188 ;;		_action_s3_e1
  2189 ;;		_action_s3_e2
  2190 ;;		_getNewEvent
  2191 ;;		_timerRead
  2192 ;;		_timerSet
  2193 ;; This function is called by:
  2194 ;;		_main
  2195 ;; This function uses a non-reentrant model
  2196 ;;
  2197                           
  2198                           
  2199                           ;psect for function _eventHandlerService
  2200  0027                     _eventHandlerService:	
  2201                           
  2202                           ;eventhandler.c: 63: if ( timerRead(eventHandlerTimer) == 0 )
  2203                           
  2204                           ;incstack = 0
  2205                           ; Regs used in _eventHandlerService: [wreg-fsr1h+status,2+status,0+pclath+cstack]
  2206  0027  0020               	movlb	0	; select bank0
  2207  0028  085D               	movf	_eventHandlerTimer,w
  2208  0029  2135               	fcall	_timerRead
  2209  002A  0020               	movlb	0	; select bank0
  2210  002B  084B               	movf	?_timerRead,w
  2211  002C  044C               	iorwf	?_timerRead+1,w
  2212  002D  1D03               	btfss	3,2
  2213  002E  0008               	return
  2214                           
  2215                           ;eventhandler.c: 64: {
  2216                           ;eventhandler.c: 65: newEvent = getNewEvent ();
  2217  002F  2228               	fcall	_getNewEvent
  2218  0030  0020               	movlb	0	; select bank0
  2219  0031  00D1               	movwf	??_eventHandlerService
  2220  0032  0851               	movf	??_eventHandlerService,w
  2221  0033  00C9               	movwf	_newEvent
  2222                           
  2223                           ;eventhandler.c: 67: if (((newEvent >= 0) && (newEvent < MAX_EVENTS))
  2224                           ;eventhandler.c: 68: && ((currentState >= 0) && (currentState < MAX_STATES))) {
  2225  0034  3002               	movlw	2
  2226  0035  0249               	subwf	_newEvent,w
  2227  0036  1803               	skipnc
  2228  0037  285E               	goto	l1348
  2229  0038  3003               	movlw	3
  2230  0039  0278               	subwf	_currentState,w
  2231  003A  1803               	skipnc
  2232  003B  285E               	goto	l1348
  2233                           
  2234                           ;eventhandler.c: 70: stateTable [currentState][newEvent] ();
  2235  003C  0849               	movf	_newEvent,w
  2236  003D  00D1               	movwf	??_eventHandlerService
  2237  003E  01D2               	clrf	??_eventHandlerService+1
  2238  003F  35D1               	lslf	??_eventHandlerService,f
  2239  0040  0DD2               	rlf	??_eventHandlerService+1,f
  2240  0041  0878               	movf	_currentState,w
  2241  0042  00D3               	movwf	??_eventHandlerService+2
  2242  0043  01D4               	clrf	??_eventHandlerService+3
  2243  0044  35D3               	lslf	??_eventHandlerService+2,f
  2244  0045  0DD4               	rlf	??_eventHandlerService+3,f
  2245  0046  35D3               	lslf	??_eventHandlerService+2,f
  2246  0047  0DD4               	rlf	??_eventHandlerService+3,f
  2247  0048  30DF               	movlw	low (_stateTable| (0+32768))
  2248  0049  00D5               	movwf	??_eventHandlerService+4
  2249  004A  3081               	movlw	high (_stateTable| (0+32768))
  2250  004B  00D6               	movwf	??_eventHandlerService+5
  2251  004C  0853               	movf	??_eventHandlerService+2,w
  2252  004D  0755               	addwf	??_eventHandlerService+4,w
  2253  004E  00D7               	movwf	??_eventHandlerService+6
  2254  004F  0854               	movf	??_eventHandlerService+3,w
  2255  0050  3D56               	addwfc	??_eventHandlerService+5,w
  2256  0051  00D8               	movwf	??_eventHandlerService+7
  2257  0052  0857               	movf	??_eventHandlerService+6,w
  2258  0053  0751               	addwf	??_eventHandlerService,w
  2259  0054  0084               	movwf	4
  2260  0055  0858               	movf	??_eventHandlerService+7,w
  2261  0056  3D52               	addwfc	??_eventHandlerService+1,w
  2262  0057  0085               	movwf	5
  2263  0058  3F01               	moviw [1]fsr0
  2264  0059  008A               	movwf	10
  2265  005A  3F00               	moviw [0]fsr0
  2266  005B  000A               	callw
  2267  005C  3180               	pagesel	$
  2268                           
  2269                           ;eventhandler.c: 72: } else
  2270  005D  285F               	goto	l1350
  2271  005E                     l1348:	
  2272                           
  2273                           ;eventhandler.c: 73: {
  2274                           ;eventhandler.c: 75: currentState = INITIALISE;
  2275  005E  01F8               	clrf	_currentState
  2276  005F                     l1350:	
  2277                           
  2278                           ;eventhandler.c: 76: }
  2279                           ;eventhandler.c: 78: timerSet( eventHandlerTimer, 100 );
  2280  005F  3064               	movlw	100
  2281  0060  00F4               	movwf	timerSet@duration
  2282  0061  3000               	movlw	0
  2283  0062  00F5               	movwf	timerSet@duration+1
  2284  0063  0020               	movlb	0	; select bank0
  2285  0064  085D               	movf	_eventHandlerTimer,w
  2286  0065  21B4               	fcall	_timerSet
  2287  0066  0008               	return
  2288  0067                     __end_of_eventHandlerService:	
  2289                           
  2290                           	psect	text17
  2291  0228                     __ptext17:	
  2292 ;; *************** function _getNewEvent *****************
  2293 ;; Defined at:
  2294 ;;		line 96 in file "../source/eventhandler.c"
  2295 ;; Parameters:    Size  Location     Type
  2296 ;;		None
  2297 ;; Auto vars:     Size  Location     Type
  2298 ;;		None
  2299 ;; Return value:  Size  Location     Type
  2300 ;;                  1    wreg      enum E2219
  2301 ;; Registers used:
  2302 ;;		wreg
  2303 ;; Tracked objects:
  2304 ;;		On entry : 0/0
  2305 ;;		On exit  : 0/0
  2306 ;;		Unchanged: 0/0
  2307 ;; Data sizes:     COMMON   BANK0   BANK1
  2308 ;;      Params:         0       0       0
  2309 ;;      Locals:         0       0       0
  2310 ;;      Temps:          0       0       0
  2311 ;;      Totals:         0       0       0
  2312 ;;Total ram usage:        0 bytes
  2313 ;; Hardware stack levels used:    1
  2314 ;; Hardware stack levels required when called:    2
  2315 ;; This function calls:
  2316 ;;		Nothing
  2317 ;; This function is called by:
  2318 ;;		_eventHandlerService
  2319 ;; This function uses a non-reentrant model
  2320 ;;
  2321                           
  2322                           
  2323                           ;psect for function _getNewEvent
  2324  0228                     _getNewEvent:	
  2325                           
  2326                           ;eventhandler.c: 98: return EVENT_1;
  2327                           
  2328                           ;incstack = 0
  2329                           ; Regs used in _getNewEvent: [wreg]
  2330  0228  3001               	movlw	1
  2331  0229  0008               	return
  2332  022A                     __end_of_getNewEvent:	
  2333                           
  2334                           	psect	text18
  2335  022A                     __ptext18:	
  2336 ;; *************** function _action_s3_e1 *****************
  2337 ;; Defined at:
  2338 ;;		line 92 in file "../source/eventhandler.c"
  2339 ;; Parameters:    Size  Location     Type
  2340 ;;		None
  2341 ;; Auto vars:     Size  Location     Type
  2342 ;;		None
  2343 ;; Return value:  Size  Location     Type
  2344 ;;                  1    wreg      void 
  2345 ;; Registers used:
  2346 ;;		None
  2347 ;; Tracked objects:
  2348 ;;		On entry : 0/0
  2349 ;;		On exit  : 0/0
  2350 ;;		Unchanged: 0/0
  2351 ;; Data sizes:     COMMON   BANK0   BANK1
  2352 ;;      Params:         0       0       0
  2353 ;;      Locals:         0       0       0
  2354 ;;      Temps:          0       0       0
  2355 ;;      Totals:         0       0       0
  2356 ;;Total ram usage:        0 bytes
  2357 ;; Hardware stack levels used:    1
  2358 ;; Hardware stack levels required when called:    2
  2359 ;; This function calls:
  2360 ;;		Nothing
  2361 ;; This function is called by:
  2362 ;;		_eventHandlerService
  2363 ;; This function uses a non-reentrant model
  2364 ;;
  2365                           
  2366                           
  2367                           ;psect for function _action_s3_e1
  2368  022A                     _action_s3_e1:	
  2369                           
  2370                           ;incstack = 0
  2371                           ; Regs used in _action_s3_e1: []
  2372  022A  0008               	return
  2373  022B                     __end_of_action_s3_e1:	
  2374                           
  2375                           	psect	text19
  2376  022B                     __ptext19:	
  2377 ;; *************** function _action_s2_e2 *****************
  2378 ;; Defined at:
  2379 ;;		line 91 in file "../source/eventhandler.c"
  2380 ;; Parameters:    Size  Location     Type
  2381 ;;		None
  2382 ;; Auto vars:     Size  Location     Type
  2383 ;;		None
  2384 ;; Return value:  Size  Location     Type
  2385 ;;                  1    wreg      void 
  2386 ;; Registers used:
  2387 ;;		None
  2388 ;; Tracked objects:
  2389 ;;		On entry : 0/0
  2390 ;;		On exit  : 0/0
  2391 ;;		Unchanged: 0/0
  2392 ;; Data sizes:     COMMON   BANK0   BANK1
  2393 ;;      Params:         0       0       0
  2394 ;;      Locals:         0       0       0
  2395 ;;      Temps:          0       0       0
  2396 ;;      Totals:         0       0       0
  2397 ;;Total ram usage:        0 bytes
  2398 ;; Hardware stack levels used:    1
  2399 ;; Hardware stack levels required when called:    2
  2400 ;; This function calls:
  2401 ;;		Nothing
  2402 ;; This function is called by:
  2403 ;;		_eventHandlerService
  2404 ;; This function uses a non-reentrant model
  2405 ;;
  2406                           
  2407                           
  2408                           ;psect for function _action_s2_e2
  2409  022B                     _action_s2_e2:	
  2410                           
  2411                           ;incstack = 0
  2412                           ; Regs used in _action_s2_e2: []
  2413  022B  0008               	return
  2414  022C                     __end_of_action_s2_e2:	
  2415                           
  2416                           	psect	text20
  2417  022C                     __ptext20:	
  2418 ;; *************** function _action_s2_e1 *****************
  2419 ;; Defined at:
  2420 ;;		line 90 in file "../source/eventhandler.c"
  2421 ;; Parameters:    Size  Location     Type
  2422 ;;		None
  2423 ;; Auto vars:     Size  Location     Type
  2424 ;;		None
  2425 ;; Return value:  Size  Location     Type
  2426 ;;                  1    wreg      void 
  2427 ;; Registers used:
  2428 ;;		None
  2429 ;; Tracked objects:
  2430 ;;		On entry : 0/0
  2431 ;;		On exit  : 0/0
  2432 ;;		Unchanged: 0/0
  2433 ;; Data sizes:     COMMON   BANK0   BANK1
  2434 ;;      Params:         0       0       0
  2435 ;;      Locals:         0       0       0
  2436 ;;      Temps:          0       0       0
  2437 ;;      Totals:         0       0       0
  2438 ;;Total ram usage:        0 bytes
  2439 ;; Hardware stack levels used:    1
  2440 ;; Hardware stack levels required when called:    2
  2441 ;; This function calls:
  2442 ;;		Nothing
  2443 ;; This function is called by:
  2444 ;;		_eventHandlerService
  2445 ;; This function uses a non-reentrant model
  2446 ;;
  2447                           
  2448                           
  2449                           ;psect for function _action_s2_e1
  2450  022C                     _action_s2_e1:	
  2451                           
  2452                           ;incstack = 0
  2453                           ; Regs used in _action_s2_e1: []
  2454  022C  0008               	return
  2455  022D                     __end_of_action_s2_e1:	
  2456                           
  2457                           	psect	text21
  2458  022D                     __ptext21:	
  2459 ;; *************** function _action_s1_e2 *****************
  2460 ;; Defined at:
  2461 ;;		line 89 in file "../source/eventhandler.c"
  2462 ;; Parameters:    Size  Location     Type
  2463 ;;		None
  2464 ;; Auto vars:     Size  Location     Type
  2465 ;;		None
  2466 ;; Return value:  Size  Location     Type
  2467 ;;                  1    wreg      void 
  2468 ;; Registers used:
  2469 ;;		None
  2470 ;; Tracked objects:
  2471 ;;		On entry : 0/0
  2472 ;;		On exit  : 0/0
  2473 ;;		Unchanged: 0/0
  2474 ;; Data sizes:     COMMON   BANK0   BANK1
  2475 ;;      Params:         0       0       0
  2476 ;;      Locals:         0       0       0
  2477 ;;      Temps:          0       0       0
  2478 ;;      Totals:         0       0       0
  2479 ;;Total ram usage:        0 bytes
  2480 ;; Hardware stack levels used:    1
  2481 ;; Hardware stack levels required when called:    2
  2482 ;; This function calls:
  2483 ;;		Nothing
  2484 ;; This function is called by:
  2485 ;;		_eventHandlerService
  2486 ;; This function uses a non-reentrant model
  2487 ;;
  2488                           
  2489                           
  2490                           ;psect for function _action_s1_e2
  2491  022D                     _action_s1_e2:	
  2492                           
  2493                           ;incstack = 0
  2494                           ; Regs used in _action_s1_e2: []
  2495  022D  0008               	return
  2496  022E                     __end_of_action_s1_e2:	
  2497                           
  2498                           	psect	text22
  2499  0223                     __ptext22:	
  2500 ;; *************** function _action_s1_e1 *****************
  2501 ;; Defined at:
  2502 ;;		line 82 in file "../source/eventhandler.c"
  2503 ;; Parameters:    Size  Location     Type
  2504 ;;		None
  2505 ;; Auto vars:     Size  Location     Type
  2506 ;;		None
  2507 ;; Return value:  Size  Location     Type
  2508 ;;                  1    wreg      void 
  2509 ;; Registers used:
  2510 ;;		None
  2511 ;; Tracked objects:
  2512 ;;		On entry : 0/0
  2513 ;;		On exit  : 0/0
  2514 ;;		Unchanged: 0/0
  2515 ;; Data sizes:     COMMON   BANK0   BANK1
  2516 ;;      Params:         0       0       0
  2517 ;;      Locals:         0       0       0
  2518 ;;      Temps:          0       0       0
  2519 ;;      Totals:         0       0       0
  2520 ;;Total ram usage:        0 bytes
  2521 ;; Hardware stack levels used:    1
  2522 ;; Hardware stack levels required when called:    2
  2523 ;; This function calls:
  2524 ;;		Nothing
  2525 ;; This function is called by:
  2526 ;;		_eventHandlerService
  2527 ;; This function uses a non-reentrant model
  2528 ;;
  2529                           
  2530                           
  2531                           ;psect for function _action_s1_e1
  2532  0223                     _action_s1_e1:	
  2533                           
  2534                           ;eventhandler.c: 86: currentState = STATE_2;
  2535                           
  2536                           ;incstack = 0
  2537                           ; Regs used in _action_s1_e1: []
  2538  0223  01F8               	clrf	_currentState
  2539  0224  0AF8               	incf	_currentState,f
  2540  0225  0008               	return
  2541  0226                     __end_of_action_s1_e1:	
  2542                           
  2543                           	psect	text23
  2544  022E                     __ptext23:	
  2545 ;; *************** function _action_s3_e2 *****************
  2546 ;; Defined at:
  2547 ;;		line 93 in file "../source/eventhandler.c"
  2548 ;; Parameters:    Size  Location     Type
  2549 ;;		None
  2550 ;; Auto vars:     Size  Location     Type
  2551 ;;		None
  2552 ;; Return value:  Size  Location     Type
  2553 ;;                  1    wreg      void 
  2554 ;; Registers used:
  2555 ;;		None
  2556 ;; Tracked objects:
  2557 ;;		On entry : 0/0
  2558 ;;		On exit  : 0/0
  2559 ;;		Unchanged: 0/0
  2560 ;; Data sizes:     COMMON   BANK0   BANK1
  2561 ;;      Params:         0       0       0
  2562 ;;      Locals:         0       0       0
  2563 ;;      Temps:          0       0       0
  2564 ;;      Totals:         0       0       0
  2565 ;;Total ram usage:        0 bytes
  2566 ;; Hardware stack levels used:    1
  2567 ;; Hardware stack levels required when called:    2
  2568 ;; This function calls:
  2569 ;;		Nothing
  2570 ;; This function is called by:
  2571 ;;		_eventHandlerService
  2572 ;; This function uses a non-reentrant model
  2573 ;;
  2574                           
  2575                           
  2576                           ;psect for function _action_s3_e2
  2577  022E                     _action_s3_e2:	
  2578                           
  2579                           ;incstack = 0
  2580                           ; Regs used in _action_s3_e2: []
  2581  022E  0008               	return
  2582  022F                     __end_of_action_s3_e2:	
  2583                           
  2584                           	psect	text24
  2585  00A6                     __ptext24:	
  2586 ;; *************** function _beeperService *****************
  2587 ;; Defined at:
  2588 ;;		line 103 in file "../source/beeper.c"
  2589 ;; Parameters:    Size  Location     Type
  2590 ;;		None
  2591 ;; Auto vars:     Size  Location     Type
  2592 ;;		None
  2593 ;; Return value:  Size  Location     Type
  2594 ;;                  1    wreg      void 
  2595 ;; Registers used:
  2596 ;;		wreg, fsr1l, fsr1h, status,2, status,0, pclath, cstack
  2597 ;; Tracked objects:
  2598 ;;		On entry : 0/0
  2599 ;;		On exit  : 0/0
  2600 ;;		Unchanged: 0/0
  2601 ;; Data sizes:     COMMON   BANK0   BANK1
  2602 ;;      Params:         0       0       0
  2603 ;;      Locals:         0       0       0
  2604 ;;      Temps:          0       0       0
  2605 ;;      Totals:         0       0       0
  2606 ;;Total ram usage:        0 bytes
  2607 ;; Hardware stack levels used:    1
  2608 ;; Hardware stack levels required when called:    3
  2609 ;; This function calls:
  2610 ;;		_timerRead
  2611 ;;		_timerSet
  2612 ;; This function is called by:
  2613 ;;		_main
  2614 ;; This function uses a non-reentrant model
  2615 ;;
  2616                           
  2617                           
  2618                           ;psect for function _beeperService
  2619  00A6                     _beeperService:	
  2620                           
  2621                           ;beeper.c: 105: if (repeatedBeeping)
  2622                           
  2623                           ;incstack = 0
  2624                           ; Regs used in _beeperService: [wreg+fsr1l+fsr1h+status,2+status,0+pclath+cstack]
  2625  00A6  0020               	movlb	0	; select bank0
  2626  00A7  084A               	movf	_repeatedBeeping,w
  2627  00A8  1903               	btfsc	3,2
  2628  00A9  0008               	return
  2629                           
  2630                           ;beeper.c: 106: {
  2631                           ;beeper.c: 107: if ( timerRead(beeperTimer) == 0 )
  2632  00AA  0877               	movf	_beeperTimer,w
  2633  00AB  2135               	fcall	_timerRead
  2634  00AC  0020               	movlb	0	; select bank0
  2635  00AD  084B               	movf	?_timerRead,w
  2636  00AE  044C               	iorwf	?_timerRead+1,w
  2637  00AF  1D03               	btfss	3,2
  2638  00B0  0008               	return
  2639                           
  2640                           ;beeper.c: 108: {
  2641                           ;beeper.c: 109: if (beeperToggle)
  2642  00B1  0845               	movf	_beeperToggle,w
  2643  00B2  1903               	btfsc	3,2
  2644  00B3  28B7               	goto	l334
  2645                           
  2646                           ;beeper.c: 110: {
  2647                           ;beeper.c: 111: beeperToggle = 0;
  2648  00B4  01C5               	clrf	_beeperToggle
  2649                           
  2650                           ;beeper.c: 112: beeperOn = 0;
  2651  00B5  01C4               	clrf	_beeperOn
  2652                           
  2653                           ;beeper.c: 113: }
  2654  00B6  28BB               	goto	l1388
  2655  00B7                     l334:	
  2656                           
  2657                           ;beeper.c: 114: else
  2658                           ;beeper.c: 115: {
  2659                           ;beeper.c: 116: beeperToggle = !0;
  2660  00B7  01C5               	clrf	_beeperToggle
  2661  00B8  0AC5               	incf	_beeperToggle,f
  2662                           
  2663                           ;beeper.c: 117: beeperOn = !0;
  2664  00B9  01C4               	clrf	_beeperOn
  2665  00BA  0AC4               	incf	_beeperOn,f
  2666  00BB                     l1388:	
  2667                           
  2668                           ;beeper.c: 118: }
  2669                           ;beeper.c: 120: if (nBeeps != -1)
  2670  00BB  0A42               	incf	_nBeeps,w
  2671  00BC  1903               	btfsc	3,2
  2672  00BD  0A43               	incf	_nBeeps+1,w
  2673  00BE  1903               	btfsc	3,2
  2674  00BF  28CA               	goto	l1396
  2675                           
  2676                           ;beeper.c: 121: {
  2677                           ;beeper.c: 122: nBeeps--;
  2678  00C0  30FF               	movlw	255
  2679  00C1  07C2               	addwf	_nBeeps,f
  2680  00C2  30FF               	movlw	255
  2681  00C3  3DC3               	addwfc	_nBeeps+1,f
  2682                           
  2683                           ;beeper.c: 123: if (nBeeps == 0)
  2684  00C4  0842               	movf	_nBeeps,w
  2685  00C5  0443               	iorwf	_nBeeps+1,w
  2686  00C6  1D03               	btfss	3,2
  2687  00C7  28CA               	goto	l1396
  2688                           
  2689                           ;beeper.c: 124: {
  2690                           ;beeper.c: 125: repeatedBeeping = 0;
  2691  00C8  01CA               	clrf	_repeatedBeeping
  2692                           
  2693                           ;beeper.c: 126: beeperOn = 0;
  2694  00C9  01C4               	clrf	_beeperOn
  2695  00CA                     l1396:	
  2696                           
  2697                           ;beeper.c: 127: }
  2698                           ;beeper.c: 128: }
  2699                           ;beeper.c: 129: timerSet( beeperTimer, beepRate );
  2700  00CA  085A               	movf	_beepRate+1,w
  2701  00CB  00F5               	movwf	timerSet@duration+1
  2702  00CC  0859               	movf	_beepRate,w
  2703  00CD  00F4               	movwf	timerSet@duration
  2704  00CE  0877               	movf	_beeperTimer,w
  2705  00CF  21B4               	fcall	_timerSet
  2706  00D0  0008               	return
  2707  00D1                     __end_of_beeperService:	
  2708                           
  2709                           	psect	text25
  2710  00D1                     __ptext25:	
  2711 ;; *************** function _LEDService *****************
  2712 ;; Defined at:
  2713 ;;		line 47 in file "../source/LED.c"
  2714 ;; Parameters:    Size  Location     Type
  2715 ;;		None
  2716 ;; Auto vars:     Size  Location     Type
  2717 ;;		None
  2718 ;; Return value:  Size  Location     Type
  2719 ;;                  1    wreg      void 
  2720 ;; Registers used:
  2721 ;;		wreg, fsr1l, fsr1h, status,2, status,0, pclath, cstack
  2722 ;; Tracked objects:
  2723 ;;		On entry : 0/0
  2724 ;;		On exit  : 0/0
  2725 ;;		Unchanged: 0/0
  2726 ;; Data sizes:     COMMON   BANK0   BANK1
  2727 ;;      Params:         0       0       0
  2728 ;;      Locals:         0       0       0
  2729 ;;      Temps:          0       0       0
  2730 ;;      Totals:         0       0       0
  2731 ;;Total ram usage:        0 bytes
  2732 ;; Hardware stack levels used:    1
  2733 ;; Hardware stack levels required when called:    3
  2734 ;; This function calls:
  2735 ;;		_timerRead
  2736 ;;		_timerSet
  2737 ;; This function is called by:
  2738 ;;		_main
  2739 ;; This function uses a non-reentrant model
  2740 ;;
  2741                           
  2742                           
  2743                           ;psect for function _LEDService
  2744  00D1                     _LEDService:	
  2745                           
  2746                           ;LED.c: 49: if (flashing)
  2747                           
  2748                           ;incstack = 0
  2749                           ; Regs used in _LEDService: [wreg+fsr1l+fsr1h+status,2+status,0+pclath+cstack]
  2750  00D1  0020               	movlb	0	; select bank0
  2751  00D2  0847               	movf	_flashing,w
  2752  00D3  1903               	btfsc	3,2
  2753  00D4  0008               	return
  2754                           
  2755                           ;LED.c: 50: {
  2756                           ;LED.c: 51: if ( timerRead(LEDTimer) == 0 )
  2757  00D5  0876               	movf	_LEDTimer,w
  2758  00D6  2135               	fcall	_timerRead
  2759  00D7  0020               	movlb	0	; select bank0
  2760  00D8  084B               	movf	?_timerRead,w
  2761  00D9  044C               	iorwf	?_timerRead+1,w
  2762  00DA  1D03               	btfss	3,2
  2763  00DB  0008               	return
  2764                           
  2765                           ;LED.c: 52: {
  2766                           ;LED.c: 53: if (flasherToggle)
  2767  00DC  0846               	movf	_flasherToggle,w
  2768  00DD  1903               	btfsc	3,2
  2769  00DE  28E2               	goto	l155
  2770                           
  2771                           ;LED.c: 54: {
  2772                           ;LED.c: 55: flasherToggle = 0;
  2773  00DF  01C6               	clrf	_flasherToggle
  2774                           
  2775                           ;LED.c: 56: PORTAbits.RA5 = 1;
  2776  00E0  168C               	bsf	12,5	;volatile
  2777                           
  2778                           ;LED.c: 57: }
  2779  00E1  28E5               	goto	l1362
  2780  00E2                     l155:	
  2781                           
  2782                           ;LED.c: 58: else
  2783                           ;LED.c: 59: {
  2784                           ;LED.c: 60: flasherToggle = !0;
  2785  00E2  01C6               	clrf	_flasherToggle
  2786  00E3  0AC6               	incf	_flasherToggle,f
  2787                           
  2788                           ;LED.c: 61: PORTAbits.RA5 = 0;
  2789  00E4  128C               	bcf	12,5	;volatile
  2790  00E5                     l1362:	
  2791                           
  2792                           ;LED.c: 62: }
  2793                           ;LED.c: 63: timerSet( LEDTimer, flashRate );
  2794  00E5  085C               	movf	_flashRate+1,w
  2795  00E6  00F5               	movwf	timerSet@duration+1
  2796  00E7  085B               	movf	_flashRate,w
  2797  00E8  00F4               	movwf	timerSet@duration
  2798  00E9  0876               	movf	_LEDTimer,w
  2799  00EA  21B4               	fcall	_timerSet
  2800  00EB  0008               	return
  2801  00EC                     __end_of_LEDService:	
  2802                           
  2803                           	psect	text26
  2804  01B4                     __ptext26:	
  2805 ;; *************** function _timerSet *****************
  2806 ;; Defined at:
  2807 ;;		line 105 in file "../source/timer.c"
  2808 ;; Parameters:    Size  Location     Type
  2809 ;;  index           1    wreg     unsigned char 
  2810 ;;  duration        2    4[COMMON] unsigned int 
  2811 ;; Auto vars:     Size  Location     Type
  2812 ;;  index           1    0[BANK0 ] unsigned char 
  2813 ;; Return value:  Size  Location     Type
  2814 ;;                  1    wreg      void 
  2815 ;; Registers used:
  2816 ;;		wreg, fsr1l, fsr1h, status,2, status,0
  2817 ;; Tracked objects:
  2818 ;;		On entry : 0/0
  2819 ;;		On exit  : 0/0
  2820 ;;		Unchanged: 0/0
  2821 ;; Data sizes:     COMMON   BANK0   BANK1
  2822 ;;      Params:         2       0       0
  2823 ;;      Locals:         0       1       0
  2824 ;;      Temps:          0       0       0
  2825 ;;      Totals:         2       1       0
  2826 ;;Total ram usage:        3 bytes
  2827 ;; Hardware stack levels used:    1
  2828 ;; Hardware stack levels required when called:    2
  2829 ;; This function calls:
  2830 ;;		Nothing
  2831 ;; This function is called by:
  2832 ;;		_eventHandlerInit
  2833 ;;		_eventHandlerService
  2834 ;;		_LEDInit
  2835 ;;		_LEDService
  2836 ;;		_beeperInit
  2837 ;;		_beeperService
  2838 ;; This function uses a non-reentrant model
  2839 ;;
  2840                           
  2841                           
  2842                           ;psect for function _timerSet
  2843  01B4                     _timerSet:	
  2844                           
  2845                           ;incstack = 0
  2846                           ; Regs used in _timerSet: [wreg+fsr1l+fsr1h+status,2+status,0]
  2847                           ;timerSet@index stored from wreg
  2848  01B4  0020               	movlb	0	; select bank0
  2849  01B5  00CB               	movwf	timerSet@index
  2850                           
  2851                           ;timer.c: 107: if ( index < numTimers )
  2852  01B6  0879               	movf	_numTimers,w
  2853  01B7  024B               	subwf	timerSet@index,w
  2854  01B8  1803               	skipnc
  2855  01B9  0008               	return
  2856                           
  2857                           ;timer.c: 108: {
  2858                           ;timer.c: 109: timers[index] = duration;
  2859  01BA  354B               	lslf	timerSet@index,w
  2860  01BB  3E20               	addlw	(low (_timers| 0))& (0+255)
  2861  01BC  0086               	movwf	6
  2862  01BD  0187               	clrf	7
  2863  01BE  0874               	movf	timerSet@duration,w
  2864  01BF  3FC0               	movwi [0]fsr1
  2865  01C0  0875               	movf	timerSet@duration+1,w
  2866  01C1  3FC1               	movwi [1]fsr1
  2867  01C2  0008               	return
  2868  01C3                     __end_of_timerSet:	
  2869                           
  2870                           	psect	text27
  2871  0135                     __ptext27:	
  2872 ;; *************** function _timerRead *****************
  2873 ;; Defined at:
  2874 ;;		line 121 in file "../source/timer.c"
  2875 ;; Parameters:    Size  Location     Type
  2876 ;;  index           1    wreg     unsigned char 
  2877 ;; Auto vars:     Size  Location     Type
  2878 ;;  index           1    5[BANK0 ] unsigned char 
  2879 ;;  result          2    3[BANK0 ] unsigned int 
  2880 ;; Return value:  Size  Location     Type
  2881 ;;                  2    0[BANK0 ] unsigned int 
  2882 ;; Registers used:
  2883 ;;		wreg, fsr1l, fsr1h, status,2, status,0
  2884 ;; Tracked objects:
  2885 ;;		On entry : 0/0
  2886 ;;		On exit  : 0/0
  2887 ;;		Unchanged: 0/0
  2888 ;; Data sizes:     COMMON   BANK0   BANK1
  2889 ;;      Params:         0       3       0
  2890 ;;      Locals:         0       3       0
  2891 ;;      Temps:          0       0       0
  2892 ;;      Totals:         0       6       0
  2893 ;;Total ram usage:        6 bytes
  2894 ;; Hardware stack levels used:    1
  2895 ;; Hardware stack levels required when called:    2
  2896 ;; This function calls:
  2897 ;;		Nothing
  2898 ;; This function is called by:
  2899 ;;		_eventHandlerService
  2900 ;;		_LEDService
  2901 ;;		_beeperService
  2902 ;; This function uses a non-reentrant model
  2903 ;;
  2904                           
  2905                           
  2906                           ;psect for function _timerRead
  2907  0135                     _timerRead:	
  2908                           
  2909                           ;incstack = 0
  2910                           ; Regs used in _timerRead: [wreg+fsr1l+fsr1h+status,2+status,0]
  2911                           ;timerRead@index stored from wreg
  2912  0135  0020               	movlb	0	; select bank0
  2913  0136  00D0               	movwf	timerRead@index
  2914                           
  2915                           ;timer.c: 123: unsigned int result = 0xFFFF;
  2916  0137  30FF               	movlw	255
  2917  0138  00CE               	movwf	timerRead@result
  2918  0139  30FF               	movlw	255
  2919  013A  00CF               	movwf	timerRead@result+1
  2920                           
  2921                           ;timer.c: 124: if ( index < numTimers )
  2922  013B  0879               	movf	_numTimers,w
  2923  013C  0250               	subwf	timerRead@index,w
  2924  013D  1803               	skipnc
  2925  013E  2947               	goto	l1312
  2926                           
  2927                           ;timer.c: 125: {
  2928                           ;timer.c: 126: result = timers[index];
  2929  013F  3550               	lslf	timerRead@index,w
  2930  0140  3E20               	addlw	(low (_timers| 0))& (0+255)
  2931  0141  0086               	movwf	6
  2932  0142  0187               	clrf	7
  2933  0143  3F40               	moviw [0]fsr1
  2934  0144  00CE               	movwf	timerRead@result
  2935  0145  3F41               	moviw [1]fsr1
  2936  0146  00CF               	movwf	timerRead@result+1
  2937  0147                     l1312:	
  2938                           
  2939                           ;timer.c: 127: }
  2940                           ;timer.c: 128: return ( result );
  2941  0147  084F               	movf	timerRead@result+1,w
  2942  0148  00CC               	movwf	?_timerRead+1
  2943  0149  084E               	movf	timerRead@result,w
  2944  014A  00CB               	movwf	?_timerRead
  2945  014B  0008               	return
  2946  014C                     __end_of_timerRead:	
  2947                           
  2948                           	psect	intentry
  2949  0004                     __pintentry:	
  2950 ;; *************** function _ISRCode *****************
  2951 ;; Defined at:
  2952 ;;		line 32 in file "../source/interrupt.c"
  2953 ;; Parameters:    Size  Location     Type
  2954 ;;		None
  2955 ;; Auto vars:     Size  Location     Type
  2956 ;;		None
  2957 ;; Return value:  Size  Location     Type
  2958 ;;                  1    wreg      void 
  2959 ;; Registers used:
  2960 ;;		wreg, fsr1l, fsr1h, status,2, status,0, pclath, cstack
  2961 ;; Tracked objects:
  2962 ;;		On entry : 0/0
  2963 ;;		On exit  : 0/0
  2964 ;;		Unchanged: 0/0
  2965 ;; Data sizes:     COMMON   BANK0   BANK1
  2966 ;;      Params:         0       0       0
  2967 ;;      Locals:         0       0       0
  2968 ;;      Temps:          1       0       0
  2969 ;;      Totals:         1       0       0
  2970 ;;Total ram usage:        1 bytes
  2971 ;; Hardware stack levels used:    1
  2972 ;; Hardware stack levels required when called:    1
  2973 ;; This function calls:
  2974 ;;		_IOCInterrupt
  2975 ;;		_timer2Interrupt
  2976 ;;		_timerInterrupt
  2977 ;; This function is called by:
  2978 ;;		Interrupt level 1
  2979 ;; This function uses a non-reentrant model
  2980 ;;
  2981                           
  2982  0004                     _ISRCode:	
  2983                           
  2984                           ;incstack = 0
  2985                           ; Regs used in _ISRCode: [wreg+fsr1l+fsr1h+status,2+status,0+pclath+cstack]
  2986  0004  147E               	bsf	126,0	;set compiler interrupt flag (level 1)
  2987  0005  3180               	pagesel	$
  2988  0006  0020               	movlb	0	; select bank0
  2989  0007  087F               	movf	127,w
  2990  0008  00F3               	movwf	??_ISRCode
  2991                           
  2992                           ;interrupt.c: 34: IOCInterrupt();
  2993  0009  2162               	fcall	_IOCInterrupt
  2994                           
  2995                           ;interrupt.c: 35: timerInterrupt( );
  2996  000A  2067               	fcall	_timerInterrupt
  2997                           
  2998                           ;interrupt.c: 36: timer2Interrupt();
  2999  000B  20EC               	fcall	_timer2Interrupt
  3000  000C  0873               	movf	??_ISRCode,w
  3001  000D  0020               	movlb	0	; select bank0
  3002  000E  00FF               	movwf	127
  3003  000F  107E               	bcf	126,0	;clear compiler interrupt flag (level 1)
  3004  0010  0009               	retfie
  3005  0011                     __end_of_ISRCode:	
  3006                           
  3007                           	psect	text29
  3008  0067                     __ptext29:	
  3009 ;; *************** function _timerInterrupt *****************
  3010 ;; Defined at:
  3011 ;;		line 51 in file "../source/timer.c"
  3012 ;; Parameters:    Size  Location     Type
  3013 ;;		None
  3014 ;; Auto vars:     Size  Location     Type
  3015 ;;  i               1    2[COMMON] unsigned char 
  3016 ;; Return value:  Size  Location     Type
  3017 ;;                  1    wreg      void 
  3018 ;; Registers used:
  3019 ;;		wreg, fsr1l, fsr1h, status,2, status,0
  3020 ;; Tracked objects:
  3021 ;;		On entry : 0/0
  3022 ;;		On exit  : 0/0
  3023 ;;		Unchanged: 0/0
  3024 ;; Data sizes:     COMMON   BANK0   BANK1
  3025 ;;      Params:         0       0       0
  3026 ;;      Locals:         1       0       0
  3027 ;;      Temps:          2       0       0
  3028 ;;      Totals:         3       0       0
  3029 ;;Total ram usage:        3 bytes
  3030 ;; Hardware stack levels used:    1
  3031 ;; This function calls:
  3032 ;;		Nothing
  3033 ;; This function is called by:
  3034 ;;		_ISRCode
  3035 ;; This function uses a non-reentrant model
  3036 ;;
  3037                           
  3038                           
  3039                           ;psect for function _timerInterrupt
  3040  0067                     _timerInterrupt:	
  3041                           
  3042                           ;timer.c: 53: unsigned char i;
  3043                           ;timer.c: 55: if ( PIE1bits.TMR1IE && PIR1bits.TMR1IF )
  3044                           
  3045                           ;incstack = 0
  3046                           ; Regs used in _timerInterrupt: [wreg+fsr1l+fsr1h+status,2+status,0]
  3047  0067  0021               	movlb	1	; select bank1
  3048  0068  1C11               	btfss	17,0	;volatile
  3049  0069  0008               	return
  3050  006A  0020               	movlb	0	; select bank0
  3051  006B  1C11               	btfss	17,0	;volatile
  3052  006C  0008               	return
  3053                           
  3054                           ;timer.c: 56: {
  3055                           ;timer.c: 57: T1CONbits.TMR1ON = 0;
  3056  006D  1018               	bcf	24,0	;volatile
  3057                           
  3058                           ;timer.c: 58: if ( ( delayTimer != 0 ) )
  3059  006E  0840               	movf	_delayTimer,w
  3060  006F  0441               	iorwf	_delayTimer+1,w
  3061  0070  1903               	btfsc	3,2
  3062  0071  2876               	goto	i1l1176
  3063                           
  3064                           ;timer.c: 59: {
  3065                           ;timer.c: 60: delayTimer--;
  3066  0072  3001               	movlw	1
  3067  0073  02C0               	subwf	_delayTimer,f
  3068  0074  3000               	movlw	0
  3069  0075  3BC1               	subwfb	_delayTimer+1,f
  3070  0076                     i1l1176:	
  3071                           
  3072                           ;timer.c: 61: }
  3073                           ;timer.c: 63: for ( i = 0; i < numTimers; i++ )
  3074  0076  01F2               	clrf	timerInterrupt@i
  3075  0077                     i1l1186:	
  3076  0077  0879               	movf	_numTimers,w
  3077  0078  0272               	subwf	timerInterrupt@i,w
  3078  0079  1803               	btfsc	3,0
  3079  007A  289E               	goto	i1l255
  3080                           
  3081                           ;timer.c: 64: {
  3082                           ;timer.c: 65: if ( ( timers[i] != 0 ) && ( timers[i] != 0xFFFF ) )
  3083  007B  3572               	lslf	timerInterrupt@i,w
  3084  007C  3E20               	addlw	(low (_timers| 0))& (0+255)
  3085  007D  0086               	movwf	6
  3086  007E  0187               	clrf	7
  3087  007F  0016               	moviw fsr1++
  3088  0080  0401               	iorwf	1,w
  3089  0081  1903               	btfsc	3,2
  3090  0082  2899               	goto	i1l1184
  3091  0083  3572               	lslf	timerInterrupt@i,w
  3092  0084  3E20               	addlw	(low (_timers| 0))& (0+255)
  3093  0085  0086               	movwf	6
  3094  0086  0187               	clrf	7
  3095  0087  0016               	moviw fsr1++
  3096  0088  3AFF               	xorlw	255
  3097  0089  00F0               	movwf	??_timerInterrupt
  3098  008A  0016               	moviw fsr1++
  3099  008B  3AFF               	xorlw	255
  3100  008C  04F0               	iorwf	??_timerInterrupt,f
  3101  008D  1903               	btfsc	3,2
  3102  008E  2899               	goto	i1l1184
  3103                           
  3104                           ;timer.c: 66: {
  3105                           ;timer.c: 67: timers[i]--;
  3106  008F  3572               	lslf	timerInterrupt@i,w
  3107  0090  3E20               	addlw	(low (_timers| 0))& (0+255)
  3108  0091  0086               	movwf	6
  3109  0092  0187               	clrf	7
  3110  0093  3001               	movlw	1
  3111  0094  0281               	subwf	1,f
  3112  0095  3141               	addfsr 1,1
  3113  0096  3000               	movlw	0
  3114  0097  3B81               	subwfb	1,f
  3115  0098  317F               	addfsr 1,-1
  3116  0099                     i1l1184:	
  3117  0099  3001               	movlw	1
  3118  009A  00F0               	movwf	??_timerInterrupt
  3119  009B  0870               	movf	??_timerInterrupt,w
  3120  009C  07F2               	addwf	timerInterrupt@i,f
  3121  009D  2877               	goto	i1l1186
  3122  009E                     i1l255:	
  3123                           
  3124                           ;timer.c: 68: }
  3125                           ;timer.c: 69: }
  3126                           ;timer.c: 71: TMR1 = 32000;
  3127  009E  307D               	movlw	125
  3128  009F  0020               	movlb	0	; select bank0
  3129  00A0  0097               	movwf	23	;volatile
  3130  00A1  3000               	movlw	0
  3131  00A2  0096               	movwf	22	;volatile
  3132                           
  3133                           ;timer.c: 72: T1CONbits.TMR1ON = 1;
  3134  00A3  1418               	bsf	24,0	;volatile
  3135                           
  3136                           ;timer.c: 73: PIR1bits.TMR1IF = 0;
  3137  00A4  1011               	bcf	17,0	;volatile
  3138  00A5  0008               	return
  3139  00A6                     __end_of_timerInterrupt:	
  3140                           
  3141                           	psect	text30
  3142  00EC                     __ptext30:	
  3143 ;; *************** function _timer2Interrupt *****************
  3144 ;; Defined at:
  3145 ;;		line 50 in file "../source/beeper.c"
  3146 ;; Parameters:    Size  Location     Type
  3147 ;;		None
  3148 ;; Auto vars:     Size  Location     Type
  3149 ;;  i               1    0        unsigned char 
  3150 ;; Return value:  Size  Location     Type
  3151 ;;                  2  104[None  ] int 
  3152 ;; Registers used:
  3153 ;;		wreg, status,2, status,0
  3154 ;; Tracked objects:
  3155 ;;		On entry : 0/0
  3156 ;;		On exit  : 0/0
  3157 ;;		Unchanged: 0/0
  3158 ;; Data sizes:     COMMON   BANK0   BANK1
  3159 ;;      Params:         0       0       0
  3160 ;;      Locals:         0       0       0
  3161 ;;      Temps:          1       0       0
  3162 ;;      Totals:         1       0       0
  3163 ;;Total ram usage:        1 bytes
  3164 ;; Hardware stack levels used:    1
  3165 ;; This function calls:
  3166 ;;		Nothing
  3167 ;; This function is called by:
  3168 ;;		_ISRCode
  3169 ;; This function uses a non-reentrant model
  3170 ;;
  3171                           
  3172                           
  3173                           ;psect for function _timer2Interrupt
  3174  00EC                     _timer2Interrupt:	
  3175                           
  3176                           ;beeper.c: 52: unsigned char i;
  3177                           ;beeper.c: 54: if ( PIE1bits.TMR2IE && PIR1bits.TMR2IF )
  3178                           
  3179                           ;incstack = 0
  3180                           ; Regs used in _timer2Interrupt: [wreg+status,2+status,0]
  3181  00EC  0021               	movlb	1	; select bank1
  3182  00ED  1C91               	btfss	17,1	;volatile
  3183  00EE  0008               	return
  3184  00EF  0020               	movlb	0	; select bank0
  3185  00F0  1C91               	btfss	17,1	;volatile
  3186  00F1  0008               	return
  3187                           
  3188                           ;beeper.c: 55: {
  3189                           ;beeper.c: 56: T2CONbits.TMR2ON = 0;
  3190  00F2  111C               	bcf	28,2	;volatile
  3191                           
  3192                           ;beeper.c: 58: if (beeperOn)
  3193  00F3  0844               	movf	_beeperOn,w
  3194  00F4  1903               	btfsc	3,2
  3195  00F5  2902               	goto	i1l1198
  3196                           
  3197                           ;beeper.c: 59: {
  3198                           ;beeper.c: 60: LATAbits.LATA1 ^= 1;
  3199  00F6  0022               	movlb	2	; select bank2
  3200  00F7  0C0C               	rrf	12,w	;volatile
  3201  00F8  3901               	andlw	1
  3202  00F9  00F0               	movwf	??_timer2Interrupt
  3203  00FA  3001               	movlw	1
  3204  00FB  06F0               	xorwf	??_timer2Interrupt,f
  3205  00FC  0DF0               	rlf	??_timer2Interrupt,f
  3206  00FD  080C               	movf	12,w	;volatile
  3207  00FE  0670               	xorwf	??_timer2Interrupt,w
  3208  00FF  39FD               	andlw	-3
  3209  0100  0670               	xorwf	??_timer2Interrupt,w
  3210  0101  008C               	movwf	12	;volatile
  3211  0102                     i1l1198:	
  3212                           
  3213                           ;beeper.c: 61: }
  3214                           ;beeper.c: 62: T2CONbits.TMR2ON = 1;
  3215  0102  0020               	movlb	0	; select bank0
  3216  0103  151C               	bsf	28,2	;volatile
  3217                           
  3218                           ;beeper.c: 63: PIR1bits.TMR2IF = 0;
  3219  0104  1091               	bcf	17,1	;volatile
  3220  0105  0008               	return
  3221  0106                     __end_of_timer2Interrupt:	
  3222                           
  3223                           	psect	text31
  3224  0162                     __ptext31:	
  3225 ;; *************** function _IOCInterrupt *****************
  3226 ;; Defined at:
  3227 ;;		line 36 in file "../source/eventhandler.c"
  3228 ;; Parameters:    Size  Location     Type
  3229 ;;		None
  3230 ;; Auto vars:     Size  Location     Type
  3231 ;;		None
  3232 ;; Return value:  Size  Location     Type
  3233 ;;                  1    wreg      void 
  3234 ;; Registers used:
  3235 ;;		wreg, status,2, status,0
  3236 ;; Tracked objects:
  3237 ;;		On entry : 0/0
  3238 ;;		On exit  : 0/0
  3239 ;;		Unchanged: 0/0
  3240 ;; Data sizes:     COMMON   BANK0   BANK1
  3241 ;;      Params:         0       0       0
  3242 ;;      Locals:         0       0       0
  3243 ;;      Temps:          1       0       0
  3244 ;;      Totals:         1       0       0
  3245 ;;Total ram usage:        1 bytes
  3246 ;; Hardware stack levels used:    1
  3247 ;; This function calls:
  3248 ;;		Nothing
  3249 ;; This function is called by:
  3250 ;;		_ISRCode
  3251 ;; This function uses a non-reentrant model
  3252 ;;
  3253                           
  3254                           
  3255                           ;psect for function _IOCInterrupt
  3256  0162                     _IOCInterrupt:	
  3257                           
  3258                           ;eventhandler.c: 38: if ( INTCONbits.IOCIF == 1)
  3259                           
  3260                           ;incstack = 0
  3261                           ; Regs used in _IOCInterrupt: [wreg+status,2+status,0]
  3262  0162  1C0B               	btfss	11,0	;volatile
  3263  0163  0008               	return
  3264                           
  3265                           ;eventhandler.c: 39: {
  3266                           ;eventhandler.c: 41: if (IOCAFbits.IOCAF3 == 1)
  3267  0164  0027               	movlb	7	; select bank7
  3268  0165  1D93               	btfss	19,3	;volatile
  3269  0166  0008               	return
  3270                           
  3271                           ;eventhandler.c: 42: {
  3272                           ;eventhandler.c: 45: LATAbits.LATA4 ^= 1;
  3273  0167  0022               	movlb	2	; select bank2
  3274  0168  0E0C               	swapf	12,w	;volatile
  3275  0169  3901               	andlw	1
  3276  016A  00F0               	movwf	??_IOCInterrupt
  3277  016B  3001               	movlw	1
  3278  016C  06F0               	xorwf	??_IOCInterrupt,f
  3279  016D  0EF0               	swapf	??_IOCInterrupt,f
  3280  016E  080C               	movf	12,w	;volatile
  3281  016F  0670               	xorwf	??_IOCInterrupt,w
  3282  0170  39EF               	andlw	-17
  3283  0171  0670               	xorwf	??_IOCInterrupt,w
  3284  0172  008C               	movwf	12	;volatile
  3285                           
  3286                           ;eventhandler.c: 47: IOCAFbits.IOCAF3 = 0;
  3287  0173  0027               	movlb	7	; select bank7
  3288  0174  1193               	bcf	19,3	;volatile
  3289  0175  0008               	return
  3290  0176                     __end_of_IOCInterrupt:	
  3291  007E                     btemp	set	126	;btemp
  3292  007E                     int$flags	set	126
  3293  007E                     wtemp	set	126
  3294  007E                     wtemp0	set	126
  3295  0080                     wtemp1	set	128
  3296  0082                     wtemp2	set	130
  3297  0084                     wtemp3	set	132
  3298  0086                     wtemp4	set	134
  3299  0088                     wtemp5	set	136
  3300  007F                     wtemp6	set	127
  3301  007E                     ttemp	set	126
  3302  007E                     ttemp0	set	126
  3303  0081                     ttemp1	set	129
  3304  0084                     ttemp2	set	132
  3305  0087                     ttemp3	set	135
  3306  007F                     ttemp4	set	127
  3307  007E                     ltemp	set	126
  3308  007E                     ltemp0	set	126
  3309  0082                     ltemp1	set	130
  3310  0086                     ltemp2	set	134
  3311  0080                     ltemp3	set	128


Data Sizes:
    Strings     0
    Constant    12
    Data        4
    BSS         47
    Persistent  1
    Stack       0

Auto Spaces:
    Space          Size  Autos    Used
    COMMON           14      6      10
    BANK0            80     14      62
    BANK1            32      0       0

Pointer List with Targets:

    stateTable	const PTR FTN()void [2][3] size(2) Largest target is 1
		 -> action_s3_e2(), action_s3_e1(), action_s2_e2(), action_s2_e1(), 
		 -> action_s1_e2(), action_s1_e1(), 


Critical Paths under _main in COMMON

    _initialise->_flashLED
    _eventHandlerInit->_setEvent
    _eventHandlerInit->_timerGet
    _eventHandlerInit->_timerSet
    _beeperInit->_timerGet
    _beeperInit->_timerSet
    _LEDInit->_timerGet
    _LEDInit->_timerSet
    _timerGet->_timerLock
    _eventHandlerService->_timerSet
    _beeperService->_timerSet
    _LEDService->_timerSet

Critical Paths under _ISRCode in COMMON

    _ISRCode->_timerInterrupt

Critical Paths under _main in BANK0

    _main->_eventHandlerService
    _initialise->_beepRepeatedly
    _eventHandlerInit->_timerGet
    _eventHandlerInit->_timerSet
    _beeperInit->_timerGet
    _beeperInit->_timerSet
    _LEDInit->_timerGet
    _LEDInit->_timerSet
    _eventHandlerService->_timerRead
    _beeperService->_timerRead
    _LEDService->_timerRead

Critical Paths under _ISRCode in BANK0

    None.

Critical Paths under _main in BANK1

    None.

Critical Paths under _ISRCode in BANK1

    None.

Call Graph Tables:

 ---------------------------------------------------------------------------------
 (Depth) Function   	        Calls       Base Space   Used Autos Params    Refs
 ---------------------------------------------------------------------------------
 (0) _main                                                 0     0      0    3896
                         _LEDService
                      _beeperService
                _eventHandlerService
                         _initialise
                       _kickWatchDog
 ---------------------------------------------------------------------------------
 (1) _kickWatchDog                                         0     0      0       0
 ---------------------------------------------------------------------------------
 (1) _initialise                                           0     0      0    2150
                            _LEDInit
                     _beepRepeatedly
                         _beeperInit
                   _eventHandlerInit
                           _flashLED
                       _hardwareInit
                      _initInterrupt
                          _timerInit
 ---------------------------------------------------------------------------------
 (2) _timerInit                                            0     0      0       0
 ---------------------------------------------------------------------------------
 (2) _initInterrupt                                        0     0      0       0
 ---------------------------------------------------------------------------------
 (2) _hardwareInit                                         0     0      0       0
 ---------------------------------------------------------------------------------
 (2) _flashLED                                             2     0      2      75
                                              4 COMMON     2     0      2
 ---------------------------------------------------------------------------------
 (2) _eventHandlerInit                                     1     1      0     632
                                              1 BANK0      1     1      0
                   _initIOCInterrupt
                           _setEvent
                           _timerGet
                           _timerSet
 ---------------------------------------------------------------------------------
 (3) _setEvent                                             2     2      0      22
                                              4 COMMON     2     2      0
 ---------------------------------------------------------------------------------
 (3) _initIOCInterrupt                                     0     0      0       0
 ---------------------------------------------------------------------------------
 (2) _beeperInit                                           1     1      0     610
                                              1 BANK0      1     1      0
                         _timer2Init
                           _timerGet
                           _timerSet
 ---------------------------------------------------------------------------------
 (3) _timer2Init                                           0     0      0       0
 ---------------------------------------------------------------------------------
 (2) _beepRepeatedly                                       4     0      4     223
                                              0 BANK0      4     0      4
 ---------------------------------------------------------------------------------
 (2) _LEDInit                                              1     1      0     610
                                              1 BANK0      1     1      0
                           _timerGet
                           _timerSet
 ---------------------------------------------------------------------------------
 (3) _timerGet                                             2     2      0     127
                                              5 COMMON     1     1      0
                                              0 BANK0      1     1      0
                          _timerLock
 ---------------------------------------------------------------------------------
 (4) _timerLock                                            1     1      0      62
                                              4 COMMON     1     1      0
 ---------------------------------------------------------------------------------
 (1) _eventHandlerService                                  8     8      0     582
                                              6 BANK0      8     8      0
                       _action_s1_e1 *
                       _action_s1_e2 *
                       _action_s2_e1 *
                       _action_s2_e2 *
                       _action_s3_e1 *
                       _action_s3_e2 *
                        _getNewEvent
                          _timerRead
                           _timerSet
 ---------------------------------------------------------------------------------
 (2) _getNewEvent                                          0     0      0       0
 ---------------------------------------------------------------------------------
 (2) _action_s3_e2                                         0     0      0       0
 ---------------------------------------------------------------------------------
 (2) _action_s3_e1                                         0     0      0       0
 ---------------------------------------------------------------------------------
 (2) _action_s2_e2                                         0     0      0       0
 ---------------------------------------------------------------------------------
 (2) _action_s2_e1                                         0     0      0       0
 ---------------------------------------------------------------------------------
 (2) _action_s1_e2                                         0     0      0       0
 ---------------------------------------------------------------------------------
 (2) _action_s1_e1                                         0     0      0       0
 ---------------------------------------------------------------------------------
 (1) _beeperService                                        0     0      0     582
                          _timerRead
                           _timerSet
 ---------------------------------------------------------------------------------
 (1) _LEDService                                           0     0      0     582
                          _timerRead
                           _timerSet
 ---------------------------------------------------------------------------------
 (3) _timerSet                                             3     1      2     483
                                              4 COMMON     2     0      2
                                              0 BANK0      1     1      0
 ---------------------------------------------------------------------------------
 (2) _timerRead                                            6     3      3      99
                                              0 BANK0      6     3      3
 ---------------------------------------------------------------------------------
 Estimated maximum stack depth 4
 ---------------------------------------------------------------------------------
 (Depth) Function   	        Calls       Base Space   Used Autos Params    Refs
 ---------------------------------------------------------------------------------
 (5) _ISRCode                                              1     1      0      90
                                              3 COMMON     1     1      0
                       _IOCInterrupt
                    _timer2Interrupt
                     _timerInterrupt
 ---------------------------------------------------------------------------------
 (6) _timerInterrupt                                       3     3      0      90
                                              0 COMMON     3     3      0
 ---------------------------------------------------------------------------------
 (6) _timer2Interrupt                                      2     2      0       0
                                              0 COMMON     1     1      0
 ---------------------------------------------------------------------------------
 (6) _IOCInterrupt                                         1     1      0       0
                                              0 COMMON     1     1      0
 ---------------------------------------------------------------------------------
 Estimated maximum stack depth 6
 ---------------------------------------------------------------------------------

 Call Graph Graphs:

 _main (ROOT)
   _LEDService
     _timerRead
     _timerSet
   _beeperService
     _timerRead
     _timerSet
   _eventHandlerService
     _action_s1_e1 *
     _action_s1_e2 *
     _action_s2_e1 *
     _action_s2_e2 *
     _action_s3_e1 *
     _action_s3_e2 *
     _getNewEvent *
     _timerRead *
     _timerSet *
   _initialise
     _LEDInit
       _timerGet
         _timerLock
       _timerSet
     _beepRepeatedly
     _beeperInit
       _timer2Init
       _timerGet
         _timerLock
       _timerSet
     _eventHandlerInit
       _initIOCInterrupt
       _setEvent
       _timerGet
         _timerLock
       _timerSet
     _flashLED
     _hardwareInit
     _initInterrupt
     _timerInit
   _kickWatchDog

 _ISRCode (ROOT)
   _IOCInterrupt
   _timer2Interrupt
   _timerInterrupt

 Address spaces:
Name               Size   Autos  Total    Cost      Usage
BIGRAM              70      0       0       0        0.0%
EEDATA             100      0       0       0        0.0%
NULL                 0      0       0       0        0.0%
CODE                 0      0       0       0        0.0%
BITCOMMON            E      0       0       1        0.0%
BITSFR0              0      0       0       1        0.0%
SFR0                 0      0       0       1        0.0%
COMMON               E      6       A       2       71.4%
BITSFR1              0      0       0       2        0.0%
SFR1                 0      0       0       2        0.0%
BITSFR2              0      0       0       3        0.0%
SFR2                 0      0       0       3        0.0%
STACK                0      0       0       3        0.0%
BITSFR3              0      0       0       4        0.0%
SFR3                 0      0       0       4        0.0%
ABS                  0      0      48       4        0.0%
BITBANK0            50      0       0       5        0.0%
BITSFR4              0      0       0       5        0.0%
SFR4                 0      0       0       5        0.0%
BANK0               50      E      3E       6       77.5%
BITSFR5              0      0       0       6        0.0%
SFR5                 0      0       0       6        0.0%
BITBANK1            20      0       0       7        0.0%
BITSFR6              0      0       0       7        0.0%
SFR6                 0      0       0       7        0.0%
BANK1               20      0       0       8        0.0%
BITSFR7              0      0       0       8        0.0%
SFR7                 0      0       0       8        0.0%
BITSFR8              0      0       0       9        0.0%
SFR8                 0      0       0       9        0.0%
DATA                 0      0      48       9        0.0%
BITSFR9              0      0       0      10        0.0%
SFR9                 0      0       0      10        0.0%
BITSFR10             0      0       0      11        0.0%
SFR10                0      0       0      11        0.0%
BITSFR11             0      0       0      12        0.0%
SFR11                0      0       0      12        0.0%
BITSFR12             0      0       0      13        0.0%
SFR12                0      0       0      13        0.0%
BITSFR13             0      0       0      14        0.0%
SFR13                0      0       0      14        0.0%
BITSFR14             0      0       0      15        0.0%
SFR14                0      0       0      15        0.0%
BITSFR15             0      0       0      16        0.0%
SFR15                0      0       0      16        0.0%
BITSFR16             0      0       0      17        0.0%
SFR16                0      0       0      17        0.0%
BITSFR17             0      0       0      18        0.0%
SFR17                0      0       0      18        0.0%
BITSFR18             0      0       0      19        0.0%
SFR18                0      0       0      19        0.0%
BITSFR19             0      0       0      20        0.0%
SFR19                0      0       0      20        0.0%
BITSFR20             0      0       0      21        0.0%
SFR20                0      0       0      21        0.0%
BITSFR21             0      0       0      22        0.0%
SFR21                0      0       0      22        0.0%
BITSFR22             0      0       0      23        0.0%
SFR22                0      0       0      23        0.0%
BITSFR23             0      0       0      24        0.0%
SFR23                0      0       0      24        0.0%
BITSFR24             0      0       0      25        0.0%
SFR24                0      0       0      25        0.0%
BITSFR25             0      0       0      26        0.0%
SFR25                0      0       0      26        0.0%
BITSFR26             0      0       0      27        0.0%
SFR26                0      0       0      27        0.0%
BITSFR27             0      0       0      28        0.0%
SFR27                0      0       0      28        0.0%
BITSFR28             0      0       0      29        0.0%
SFR28                0      0       0      29        0.0%
BITSFR29             0      0       0      30        0.0%
SFR29                0      0       0      30        0.0%
BITSFR30             0      0       0      31        0.0%
SFR30                0      0       0      31        0.0%
BITSFR31             0      0       0      32        0.0%
SFR31                0      0       0      32        0.0%


Microchip Technology PIC Macro Assembler V1.37 build -260352376 
Symbol Table                                                                                   Mon Feb 27 19:01:30 2017

                 __CFG_CP$OFF 0000                   ?_LEDService 0070                           l155 00E2  
                         l334 00B7                           _PR2 001B                  __CFG_CPD$OFF 0000  
             _timer2Interrupt 00EC                  __CFG_BORV$LO 0000                           wreg 0009  
        __end_of_action_s1_e1 0226          __end_of_action_s1_e2 022E          __end_of_action_s2_e1 022D  
        __end_of_action_s2_e2 022C          __end_of_action_s3_e1 022B          __end_of_action_s3_e2 022F  
                __CFG_LVP$OFF 0000               __end_of_LEDInit 01F7                          l1312 0147  
                        l1400 0217                          l1332 012A                          l1350 005F  
                        l1362 00E5                          l1348 005E                          l1396 00CA  
                        l1388 00BB                ??_hardwareInit 0074                  __CFG_WDTE$ON 0000  
                        _TMR1 0016               __end_of_ISRCode 0011                  __CFG_WRT$OFF 0000  
    __end_of_initIOCInterrupt 0210                          _main 0216                 ?_kickWatchDog 0070  
                        fsr0h 0005                          fsr1h 0007                          fsr0l 0004  
                        indf0 0000                          indf1 0001                          fsr1l 0006  
                        btemp 007E                 __CFG_BOREN$ON 0000                          ltemp 007E  
                        start 0011                          ttemp 007E                          wtemp 007E  
               __CFG_IESO$OFF 0000   __end_of_eventHandlerService 0067              ??_timerInterrupt 0070  
               __CFG_PLLEN$ON 0000             ?_eventHandlerInit 0070                         ?_main 0070  
                       i1l255 009E            ??_eventHandlerInit 004C                __CFG_FCMEN$OFF 0000  
            ??_beepRepeatedly 0074                         pclath 000A                         ltemp0 007E  
                       ltemp1 0082                         ltemp2 0086                         ltemp3 0080  
              ??_kickWatchDog 0074                 ?_IOCInterrupt 0070                         ttemp0 007E  
                       ttemp1 0081                         ttemp2 0084                         ttemp3 0087  
                       ttemp4 007F                         status 0003                         wtemp0 007E  
                       wtemp1 0080                         wtemp2 0082                         wtemp3 0084  
                       wtemp4 0086                         wtemp5 0088                         wtemp6 007F  
         __size_of_LEDService 001B                __CFG_MCLRE$OFF 0000               __initialization 0012  
      __size_of_initInterrupt 0003                  __end_of_main 021C       __end_of_timer2Interrupt 0106  
                      ??_main 0076                     ??_LEDInit 004C             _eventHandlerTimer 005D  
        __size_of_getNewEvent 0002                     ??_ISRCode 0073                        i1l1184 0099  
                      i1l1176 0076                        i1l1186 0077                        i1l1198 0102  
              ??_IOCInterrupt 0070                __CFG_PWRTE$OFF 0000              __end_of_flashLED 0202  
                      _nBeeps 0042          __end_of_hardwareInit 011E                        _timers 0020  
       __size_of_action_s1_e1 0003         __size_of_action_s1_e2 0001         __size_of_action_s2_e1 0001  
       __size_of_action_s2_e2 0001         __size_of_action_s3_e1 0001         __size_of_action_s3_e2 0001  
            __end_of_setEvent 0209                  _beeperToggle 0045              __end_of_timerGet 01D1  
            __end_of_timerSet 01C3                 _initInterrupt 0220       __end_of__initialization 0024  
                _action_s1_e1 0223                __pcstackCOMMON 0070                  _action_s1_e2 022D  
                _action_s2_e1 022C                  _action_s2_e2 022B                  _action_s3_e1 022A  
                _action_s3_e2 022E                  __pidataBANK0 021C              ?_timer2Interrupt 0070  
                ??_LEDService 0076          __end_of_kickWatchDog 0228                ?_initInterrupt 0070  
                  _beeperInit 0196                    __pbssBANK0 0020             ?_initIOCInterrupt 0070  
                  _delayTimer 0040            ??_initIOCInterrupt 0074            __end_of_LEDService 00EC  
                  __pmaintext 0216                    __pintentry 0004        __size_of_beeperService 002B  
        __end_of_IOCInterrupt 0176            __size_of_timerInit 0011            __size_of_timerRead 0017  
          __size_of_timerLock 000E                       _LEDInit 01EB                       _ISRCode 0004  
                   ?_flashLED 0074     __size_of_eventHandlerInit 000F                     ?_setEvent 0070  
       __size_of_hardwareInit 0018                     ?_timerGet 0070                     ?_timerSet 0074  
             __CFG_STVREN$OFF 0000                    _initialise 014C  __size_of_eventHandlerService 0040  
                     __ptext1 0226                       __ptext2 014C                       __ptext3 0176  
                     __ptext4 0220                       __ptext5 0106                       __ptext6 01F7  
                     __ptext7 0187                       __ptext8 0202                       __ptext9 0209  
                   _T1CONbits 0018               ??_initInterrupt 0074                     _T2CONbits 001C  
                   _IOCAFbits 0393                     _IOCANbits 0392                    ??_flashLED 0076  
                 ?_beeperInit 0070                       clrloop0 0211          end_of_initialization 0024  
               _beeperService 00A6                  _hardwareInit 0106               _repeatedBeeping 004A  
           __end_of_timerInit 0187             __end_of_timerRead 014C             __end_of_timerLock 01DF  
                  ??_setEvent 0074                    _timer2Init 01A5                    ??_timerGet 0075  
                  ??_timerSet 0076         __size_of_kickWatchDog 0002                  __pstringtext 01DF  
               ??_getNewEvent 0074                     _PORTAbits 000C       __size_of_timerInterrupt 003F  
            __CFG_FOSC$INTOSC 0000                     _TRISAbits 008C                    _stateTable 01DF  
              ?_beeperService 0070                  _kickWatchDog 0226       __size_of_beepRepeatedly 0017  
       __size_of_IOCInterrupt 0014           __size_of_beeperInit 000F                   ?_initialise 0070  
         start_initialization 0012           __end_of_getNewEvent 022A              _eventHandlerInit 0187  
                _IOCInterrupt 0162                   ?_timer2Init 0070                   __pdataBANK0 0059  
                 _beeperTimer 0077     __size_of_initIOCInterrupt 0007                      ?_LEDInit 0070  
                 __pbssCOMMON 0076                     ___latbits 0000                 __pcstackBANK0 004B  
    __size_of_timer2Interrupt 001A                      ?_ISRCode 0070               ??_beeperService 0076  
           __size_of_flashLED 000B           _eventHandlerService 0027                  _currentState 0078  
         __size_of_initialise 0016                     __pnvBANK0 005D             __size_of_setEvent 0007  
           __size_of_timerGet 000E                     _flashRate 005B             __size_of_timerSet 000F  
        ?_eventHandlerService 0070                   _getNewEvent 0228              timerSet@duration 0074  
              _timerInterrupt 0067                     _lastEvent 0048                  ??_beeperInit 004C  
         __size_of_timer2Init 000F                      _LATAbits 010C                      _LEDTimer 0076  
                   clear_ram0 0210                      _PIE1bits 0091                _beepRepeatedly 011E  
                    _PIR1bits 0011                     _numTimers 0079                flashLED@period 0074  
                   _timerInit 0176                     _timerRead 0135                     _timerLock 01D1  
          __end_of_beeperInit 01A5         ??_eventHandlerService 0051        __end_of_timerInterrupt 00A6  
              setEvent@envent 0075              __size_of_LEDInit 000C         __end_of_initInterrupt 0223  
            __size_of_ISRCode 000D               timerRead@result 004E             ??_timer2Interrupt 0070  
      __end_of_beepRepeatedly 0135                 ?_action_s1_e1 0070                 ?_action_s1_e2 0070  
               ?_action_s2_e1 0070                 ?_action_s2_e2 0070                 ?_action_s3_e1 0070  
               ?_action_s3_e2 0070                    ?_timerInit 0070                    ?_timerRead 004B  
                  ?_timerLock 0070      __end_of_eventHandlerInit 0196                  ??_initialise 0076  
            _initIOCInterrupt 0209               ?_timerInterrupt 0070                    _ANSELAbits 018C  
                    _beepRate 0059                timerGet@result 004B                      _beeperOn 0044  
                    __ptext10 0196                      __ptext11 01A5                      __ptext20 022C  
                    __ptext12 011E                      __ptext21 022D                      __ptext13 01EB  
                  _T1GCONbits 0019                      __ptext30 00EC                      __ptext22 0223  
                    __ptext14 01C3                      __ptext31 0162                      __ptext23 022E  
                    __ptext15 01D1                      __ptext24 00A6                      __ptext16 0027  
                    __ptext25 00D1                      __ptext17 0228                      __ptext26 01B4  
                    __ptext18 022A                      __ptext27 0135                      __ptext19 022B  
                    __ptext29 0067                      _flashLED 01F7                      _flashing 0047  
             timerInterrupt@i 0072                      _newEvent 0049                 __size_of_main 0006  
             ?_beepRepeatedly 004B            __end_of_initialise 0162                      _setEvent 0202  
              ??_action_s1_e1 0074                ??_action_s1_e2 0074                ??_action_s2_e1 0074  
              ??_action_s2_e2 0074                ??_action_s3_e1 0074                ??_action_s3_e2 0074  
                ??_timer2Init 0074                      _timerGet 01C3                      _timerSet 01B4  
                    int$flags 007E                    _LEDService 00D1                timerRead@index 0050  
              timerLock@index 0074                    _INTCONbits 000B            __end_of_timer2Init 01B4  
                    intlevel1 0000                 _flasherToggle 0046             __CFG_CLKOUTEN$OFF 0000  
                  _OSCCONbits 0099          beepRepeatedly@period 004B                   ??_timerInit 0074  
                 ??_timerRead 0074                   ??_timerLock 0074            __end_of_stateTable 01EB  
                ?_getNewEvent 0070                 timerSet@index 004B                    _WDTCONbits 0097  
       __end_of_beeperService 00D1                 ?_hardwareInit 0070               beepRepeatedly@n 004D  
